
quiz3c_O0.elf:     file format elf32-littleriscv


Disassembly of section .text:

00010000 <_start>:
   10000:	00006117          	auipc	sp,0x6
   10004:	94010113          	addi	sp,sp,-1728 # 15940 <__stack_top>
   10008:	00005297          	auipc	t0,0x5
   1000c:	93028293          	addi	t0,t0,-1744 # 14938 <__bss_end>
   10010:	00005317          	auipc	t1,0x5
   10014:	92830313          	addi	t1,t1,-1752 # 14938 <__bss_end>
   10018:	0062d863          	bge	t0,t1,10028 <_start+0x28>
   1001c:	0002a023          	sw	zero,0(t0)
   10020:	00428293          	addi	t0,t0,4
   10024:	ff5ff06f          	j	10018 <_start+0x18>
   10028:	218040ef          	jal	14240 <main>
   1002c:	05d00893          	li	a7,93
   10030:	00000513          	li	a0,0
   10034:	00000073          	ecall
   10038:	0000006f          	j	10038 <_start+0x38>

0001003c <get_cycles>:
   1003c:	c80025f3          	rdcycleh	a1
   10040:	c0002573          	rdcycle	a0
   10044:	c8002673          	rdcycleh	a2
   10048:	fec59ae3          	bne	a1,a2,1003c <get_cycles>
   1004c:	00008067          	ret

00010050 <get_instret>:
   10050:	c82025f3          	rdinstreth	a1
   10054:	c0202573          	rdinstret	a0
   10058:	c8202673          	rdinstreth	a2
   1005c:	fec59ae3          	bne	a1,a2,10050 <get_instret>
   10060:	00008067          	ret
   10064:	0000                	.insn	2, 0x
	...

00010068 <chacha20>:
   10068:	fd410113          	addi	sp,sp,-44
   1006c:	00812223          	sw	s0,4(sp)
   10070:	00912423          	sw	s1,8(sp)
   10074:	01212623          	sw	s2,12(sp)
   10078:	01312823          	sw	s3,16(sp)
   1007c:	01412a23          	sw	s4,20(sp)
   10080:	01512c23          	sw	s5,24(sp)
   10084:	01612e23          	sw	s6,28(sp)
   10088:	03712023          	sw	s7,32(sp)
   1008c:	03812223          	sw	s8,36(sp)
   10090:	03912423          	sw	s9,40(sp)
   10094:	00005c17          	auipc	s8,0x5
   10098:	884c0c13          	addi	s8,s8,-1916 # 14918 <chacha20constants>
   1009c:	04000b93          	li	s7,64
   100a0:	01765463          	bge	a2,s7,100a8 <chacha20+0x40>
   100a4:	29d0106f          	j	11b40 <chacha20+0x1ad8>
   100a8:	000c2803          	lw	a6,0(s8)
   100ac:	004c2883          	lw	a7,4(s8)
   100b0:	008c2283          	lw	t0,8(s8)
   100b4:	00cc2303          	lw	t1,12(s8)
   100b8:	0006a383          	lw	t2,0(a3)
   100bc:	0046ae03          	lw	t3,4(a3)
   100c0:	0086ae83          	lw	t4,8(a3)
   100c4:	00c6af03          	lw	t5,12(a3)
   100c8:	0106af83          	lw	t6,16(a3)
   100cc:	0146a403          	lw	s0,20(a3)
   100d0:	0186a483          	lw	s1,24(a3)
   100d4:	01c6a903          	lw	s2,28(a3)
   100d8:	00078993          	mv	s3,a5
   100dc:	00072a03          	lw	s4,0(a4)
   100e0:	00472a83          	lw	s5,4(a4)
   100e4:	00872b03          	lw	s6,8(a4)
   100e8:	00780833          	add	a6,a6,t2
   100ec:	0109c9b3          	xor	s3,s3,a6
   100f0:	01099b93          	slli	s7,s3,0x10
   100f4:	0109d993          	srli	s3,s3,0x10
   100f8:	0179c9b3          	xor	s3,s3,s7
   100fc:	013f8fb3          	add	t6,t6,s3
   10100:	01f3c3b3          	xor	t2,t2,t6
   10104:	00c39b93          	slli	s7,t2,0xc
   10108:	0143d393          	srli	t2,t2,0x14
   1010c:	0173c3b3          	xor	t2,t2,s7
   10110:	00780833          	add	a6,a6,t2
   10114:	0109c9b3          	xor	s3,s3,a6
   10118:	00899b93          	slli	s7,s3,0x8
   1011c:	0189d993          	srli	s3,s3,0x18
   10120:	0179c9b3          	xor	s3,s3,s7
   10124:	013f8fb3          	add	t6,t6,s3
   10128:	01f3c3b3          	xor	t2,t2,t6
   1012c:	00739b93          	slli	s7,t2,0x7
   10130:	0193d393          	srli	t2,t2,0x19
   10134:	0173c3b3          	xor	t2,t2,s7
   10138:	01c888b3          	add	a7,a7,t3
   1013c:	011a4a33          	xor	s4,s4,a7
   10140:	010a1b93          	slli	s7,s4,0x10
   10144:	010a5a13          	srli	s4,s4,0x10
   10148:	017a4a33          	xor	s4,s4,s7
   1014c:	01440433          	add	s0,s0,s4
   10150:	008e4e33          	xor	t3,t3,s0
   10154:	00ce1b93          	slli	s7,t3,0xc
   10158:	014e5e13          	srli	t3,t3,0x14
   1015c:	017e4e33          	xor	t3,t3,s7
   10160:	01c888b3          	add	a7,a7,t3
   10164:	011a4a33          	xor	s4,s4,a7
   10168:	008a1b93          	slli	s7,s4,0x8
   1016c:	018a5a13          	srli	s4,s4,0x18
   10170:	017a4a33          	xor	s4,s4,s7
   10174:	01440433          	add	s0,s0,s4
   10178:	008e4e33          	xor	t3,t3,s0
   1017c:	007e1b93          	slli	s7,t3,0x7
   10180:	019e5e13          	srli	t3,t3,0x19
   10184:	017e4e33          	xor	t3,t3,s7
   10188:	01d282b3          	add	t0,t0,t4
   1018c:	005acab3          	xor	s5,s5,t0
   10190:	010a9b93          	slli	s7,s5,0x10
   10194:	010ada93          	srli	s5,s5,0x10
   10198:	017acab3          	xor	s5,s5,s7
   1019c:	015484b3          	add	s1,s1,s5
   101a0:	009eceb3          	xor	t4,t4,s1
   101a4:	00ce9b93          	slli	s7,t4,0xc
   101a8:	014ede93          	srli	t4,t4,0x14
   101ac:	017eceb3          	xor	t4,t4,s7
   101b0:	01d282b3          	add	t0,t0,t4
   101b4:	005acab3          	xor	s5,s5,t0
   101b8:	008a9b93          	slli	s7,s5,0x8
   101bc:	018ada93          	srli	s5,s5,0x18
   101c0:	017acab3          	xor	s5,s5,s7
   101c4:	015484b3          	add	s1,s1,s5
   101c8:	009eceb3          	xor	t4,t4,s1
   101cc:	007e9b93          	slli	s7,t4,0x7
   101d0:	019ede93          	srli	t4,t4,0x19
   101d4:	017eceb3          	xor	t4,t4,s7
   101d8:	01e30333          	add	t1,t1,t5
   101dc:	006b4b33          	xor	s6,s6,t1
   101e0:	010b1b93          	slli	s7,s6,0x10
   101e4:	010b5b13          	srli	s6,s6,0x10
   101e8:	017b4b33          	xor	s6,s6,s7
   101ec:	01690933          	add	s2,s2,s6
   101f0:	012f4f33          	xor	t5,t5,s2
   101f4:	00cf1b93          	slli	s7,t5,0xc
   101f8:	014f5f13          	srli	t5,t5,0x14
   101fc:	017f4f33          	xor	t5,t5,s7
   10200:	01e30333          	add	t1,t1,t5
   10204:	006b4b33          	xor	s6,s6,t1
   10208:	008b1b93          	slli	s7,s6,0x8
   1020c:	018b5b13          	srli	s6,s6,0x18
   10210:	017b4b33          	xor	s6,s6,s7
   10214:	01690933          	add	s2,s2,s6
   10218:	012f4f33          	xor	t5,t5,s2
   1021c:	007f1b93          	slli	s7,t5,0x7
   10220:	019f5f13          	srli	t5,t5,0x19
   10224:	017f4f33          	xor	t5,t5,s7
   10228:	01c80833          	add	a6,a6,t3
   1022c:	010b4b33          	xor	s6,s6,a6
   10230:	010b1b93          	slli	s7,s6,0x10
   10234:	010b5b13          	srli	s6,s6,0x10
   10238:	017b4b33          	xor	s6,s6,s7
   1023c:	016484b3          	add	s1,s1,s6
   10240:	009e4e33          	xor	t3,t3,s1
   10244:	00ce1b93          	slli	s7,t3,0xc
   10248:	014e5e13          	srli	t3,t3,0x14
   1024c:	017e4e33          	xor	t3,t3,s7
   10250:	01c80833          	add	a6,a6,t3
   10254:	010b4b33          	xor	s6,s6,a6
   10258:	008b1b93          	slli	s7,s6,0x8
   1025c:	018b5b13          	srli	s6,s6,0x18
   10260:	017b4b33          	xor	s6,s6,s7
   10264:	016484b3          	add	s1,s1,s6
   10268:	009e4e33          	xor	t3,t3,s1
   1026c:	007e1b93          	slli	s7,t3,0x7
   10270:	019e5e13          	srli	t3,t3,0x19
   10274:	017e4e33          	xor	t3,t3,s7
   10278:	01d888b3          	add	a7,a7,t4
   1027c:	0119c9b3          	xor	s3,s3,a7
   10280:	01099b93          	slli	s7,s3,0x10
   10284:	0109d993          	srli	s3,s3,0x10
   10288:	0179c9b3          	xor	s3,s3,s7
   1028c:	01390933          	add	s2,s2,s3
   10290:	012eceb3          	xor	t4,t4,s2
   10294:	00ce9b93          	slli	s7,t4,0xc
   10298:	014ede93          	srli	t4,t4,0x14
   1029c:	017eceb3          	xor	t4,t4,s7
   102a0:	01d888b3          	add	a7,a7,t4
   102a4:	0119c9b3          	xor	s3,s3,a7
   102a8:	00899b93          	slli	s7,s3,0x8
   102ac:	0189d993          	srli	s3,s3,0x18
   102b0:	0179c9b3          	xor	s3,s3,s7
   102b4:	01390933          	add	s2,s2,s3
   102b8:	012eceb3          	xor	t4,t4,s2
   102bc:	007e9b93          	slli	s7,t4,0x7
   102c0:	019ede93          	srli	t4,t4,0x19
   102c4:	017eceb3          	xor	t4,t4,s7
   102c8:	01e282b3          	add	t0,t0,t5
   102cc:	005a4a33          	xor	s4,s4,t0
   102d0:	010a1b93          	slli	s7,s4,0x10
   102d4:	010a5a13          	srli	s4,s4,0x10
   102d8:	017a4a33          	xor	s4,s4,s7
   102dc:	014f8fb3          	add	t6,t6,s4
   102e0:	01ff4f33          	xor	t5,t5,t6
   102e4:	00cf1b93          	slli	s7,t5,0xc
   102e8:	014f5f13          	srli	t5,t5,0x14
   102ec:	017f4f33          	xor	t5,t5,s7
   102f0:	01e282b3          	add	t0,t0,t5
   102f4:	005a4a33          	xor	s4,s4,t0
   102f8:	008a1b93          	slli	s7,s4,0x8
   102fc:	018a5a13          	srli	s4,s4,0x18
   10300:	017a4a33          	xor	s4,s4,s7
   10304:	014f8fb3          	add	t6,t6,s4
   10308:	01ff4f33          	xor	t5,t5,t6
   1030c:	007f1b93          	slli	s7,t5,0x7
   10310:	019f5f13          	srli	t5,t5,0x19
   10314:	017f4f33          	xor	t5,t5,s7
   10318:	00730333          	add	t1,t1,t2
   1031c:	006acab3          	xor	s5,s5,t1
   10320:	010a9b93          	slli	s7,s5,0x10
   10324:	010ada93          	srli	s5,s5,0x10
   10328:	017acab3          	xor	s5,s5,s7
   1032c:	01540433          	add	s0,s0,s5
   10330:	0083c3b3          	xor	t2,t2,s0
   10334:	00c39b93          	slli	s7,t2,0xc
   10338:	0143d393          	srli	t2,t2,0x14
   1033c:	0173c3b3          	xor	t2,t2,s7
   10340:	00730333          	add	t1,t1,t2
   10344:	006acab3          	xor	s5,s5,t1
   10348:	008a9b93          	slli	s7,s5,0x8
   1034c:	018ada93          	srli	s5,s5,0x18
   10350:	017acab3          	xor	s5,s5,s7
   10354:	01540433          	add	s0,s0,s5
   10358:	0083c3b3          	xor	t2,t2,s0
   1035c:	00739b93          	slli	s7,t2,0x7
   10360:	0193d393          	srli	t2,t2,0x19
   10364:	0173c3b3          	xor	t2,t2,s7
   10368:	00780833          	add	a6,a6,t2
   1036c:	0109c9b3          	xor	s3,s3,a6
   10370:	01099b93          	slli	s7,s3,0x10
   10374:	0109d993          	srli	s3,s3,0x10
   10378:	0179c9b3          	xor	s3,s3,s7
   1037c:	013f8fb3          	add	t6,t6,s3
   10380:	01f3c3b3          	xor	t2,t2,t6
   10384:	00c39b93          	slli	s7,t2,0xc
   10388:	0143d393          	srli	t2,t2,0x14
   1038c:	0173c3b3          	xor	t2,t2,s7
   10390:	00780833          	add	a6,a6,t2
   10394:	0109c9b3          	xor	s3,s3,a6
   10398:	00899b93          	slli	s7,s3,0x8
   1039c:	0189d993          	srli	s3,s3,0x18
   103a0:	0179c9b3          	xor	s3,s3,s7
   103a4:	013f8fb3          	add	t6,t6,s3
   103a8:	01f3c3b3          	xor	t2,t2,t6
   103ac:	00739b93          	slli	s7,t2,0x7
   103b0:	0193d393          	srli	t2,t2,0x19
   103b4:	0173c3b3          	xor	t2,t2,s7
   103b8:	01c888b3          	add	a7,a7,t3
   103bc:	011a4a33          	xor	s4,s4,a7
   103c0:	010a1b93          	slli	s7,s4,0x10
   103c4:	010a5a13          	srli	s4,s4,0x10
   103c8:	017a4a33          	xor	s4,s4,s7
   103cc:	01440433          	add	s0,s0,s4
   103d0:	008e4e33          	xor	t3,t3,s0
   103d4:	00ce1b93          	slli	s7,t3,0xc
   103d8:	014e5e13          	srli	t3,t3,0x14
   103dc:	017e4e33          	xor	t3,t3,s7
   103e0:	01c888b3          	add	a7,a7,t3
   103e4:	011a4a33          	xor	s4,s4,a7
   103e8:	008a1b93          	slli	s7,s4,0x8
   103ec:	018a5a13          	srli	s4,s4,0x18
   103f0:	017a4a33          	xor	s4,s4,s7
   103f4:	01440433          	add	s0,s0,s4
   103f8:	008e4e33          	xor	t3,t3,s0
   103fc:	007e1b93          	slli	s7,t3,0x7
   10400:	019e5e13          	srli	t3,t3,0x19
   10404:	017e4e33          	xor	t3,t3,s7
   10408:	01d282b3          	add	t0,t0,t4
   1040c:	005acab3          	xor	s5,s5,t0
   10410:	010a9b93          	slli	s7,s5,0x10
   10414:	010ada93          	srli	s5,s5,0x10
   10418:	017acab3          	xor	s5,s5,s7
   1041c:	015484b3          	add	s1,s1,s5
   10420:	009eceb3          	xor	t4,t4,s1
   10424:	00ce9b93          	slli	s7,t4,0xc
   10428:	014ede93          	srli	t4,t4,0x14
   1042c:	017eceb3          	xor	t4,t4,s7
   10430:	01d282b3          	add	t0,t0,t4
   10434:	005acab3          	xor	s5,s5,t0
   10438:	008a9b93          	slli	s7,s5,0x8
   1043c:	018ada93          	srli	s5,s5,0x18
   10440:	017acab3          	xor	s5,s5,s7
   10444:	015484b3          	add	s1,s1,s5
   10448:	009eceb3          	xor	t4,t4,s1
   1044c:	007e9b93          	slli	s7,t4,0x7
   10450:	019ede93          	srli	t4,t4,0x19
   10454:	017eceb3          	xor	t4,t4,s7
   10458:	01e30333          	add	t1,t1,t5
   1045c:	006b4b33          	xor	s6,s6,t1
   10460:	010b1b93          	slli	s7,s6,0x10
   10464:	010b5b13          	srli	s6,s6,0x10
   10468:	017b4b33          	xor	s6,s6,s7
   1046c:	01690933          	add	s2,s2,s6
   10470:	012f4f33          	xor	t5,t5,s2
   10474:	00cf1b93          	slli	s7,t5,0xc
   10478:	014f5f13          	srli	t5,t5,0x14
   1047c:	017f4f33          	xor	t5,t5,s7
   10480:	01e30333          	add	t1,t1,t5
   10484:	006b4b33          	xor	s6,s6,t1
   10488:	008b1b93          	slli	s7,s6,0x8
   1048c:	018b5b13          	srli	s6,s6,0x18
   10490:	017b4b33          	xor	s6,s6,s7
   10494:	01690933          	add	s2,s2,s6
   10498:	012f4f33          	xor	t5,t5,s2
   1049c:	007f1b93          	slli	s7,t5,0x7
   104a0:	019f5f13          	srli	t5,t5,0x19
   104a4:	017f4f33          	xor	t5,t5,s7
   104a8:	01c80833          	add	a6,a6,t3
   104ac:	010b4b33          	xor	s6,s6,a6
   104b0:	010b1b93          	slli	s7,s6,0x10
   104b4:	010b5b13          	srli	s6,s6,0x10
   104b8:	017b4b33          	xor	s6,s6,s7
   104bc:	016484b3          	add	s1,s1,s6
   104c0:	009e4e33          	xor	t3,t3,s1
   104c4:	00ce1b93          	slli	s7,t3,0xc
   104c8:	014e5e13          	srli	t3,t3,0x14
   104cc:	017e4e33          	xor	t3,t3,s7
   104d0:	01c80833          	add	a6,a6,t3
   104d4:	010b4b33          	xor	s6,s6,a6
   104d8:	008b1b93          	slli	s7,s6,0x8
   104dc:	018b5b13          	srli	s6,s6,0x18
   104e0:	017b4b33          	xor	s6,s6,s7
   104e4:	016484b3          	add	s1,s1,s6
   104e8:	009e4e33          	xor	t3,t3,s1
   104ec:	007e1b93          	slli	s7,t3,0x7
   104f0:	019e5e13          	srli	t3,t3,0x19
   104f4:	017e4e33          	xor	t3,t3,s7
   104f8:	01d888b3          	add	a7,a7,t4
   104fc:	0119c9b3          	xor	s3,s3,a7
   10500:	01099b93          	slli	s7,s3,0x10
   10504:	0109d993          	srli	s3,s3,0x10
   10508:	0179c9b3          	xor	s3,s3,s7
   1050c:	01390933          	add	s2,s2,s3
   10510:	012eceb3          	xor	t4,t4,s2
   10514:	00ce9b93          	slli	s7,t4,0xc
   10518:	014ede93          	srli	t4,t4,0x14
   1051c:	017eceb3          	xor	t4,t4,s7
   10520:	01d888b3          	add	a7,a7,t4
   10524:	0119c9b3          	xor	s3,s3,a7
   10528:	00899b93          	slli	s7,s3,0x8
   1052c:	0189d993          	srli	s3,s3,0x18
   10530:	0179c9b3          	xor	s3,s3,s7
   10534:	01390933          	add	s2,s2,s3
   10538:	012eceb3          	xor	t4,t4,s2
   1053c:	007e9b93          	slli	s7,t4,0x7
   10540:	019ede93          	srli	t4,t4,0x19
   10544:	017eceb3          	xor	t4,t4,s7
   10548:	01e282b3          	add	t0,t0,t5
   1054c:	005a4a33          	xor	s4,s4,t0
   10550:	010a1b93          	slli	s7,s4,0x10
   10554:	010a5a13          	srli	s4,s4,0x10
   10558:	017a4a33          	xor	s4,s4,s7
   1055c:	014f8fb3          	add	t6,t6,s4
   10560:	01ff4f33          	xor	t5,t5,t6
   10564:	00cf1b93          	slli	s7,t5,0xc
   10568:	014f5f13          	srli	t5,t5,0x14
   1056c:	017f4f33          	xor	t5,t5,s7
   10570:	01e282b3          	add	t0,t0,t5
   10574:	005a4a33          	xor	s4,s4,t0
   10578:	008a1b93          	slli	s7,s4,0x8
   1057c:	018a5a13          	srli	s4,s4,0x18
   10580:	017a4a33          	xor	s4,s4,s7
   10584:	014f8fb3          	add	t6,t6,s4
   10588:	01ff4f33          	xor	t5,t5,t6
   1058c:	007f1b93          	slli	s7,t5,0x7
   10590:	019f5f13          	srli	t5,t5,0x19
   10594:	017f4f33          	xor	t5,t5,s7
   10598:	00730333          	add	t1,t1,t2
   1059c:	006acab3          	xor	s5,s5,t1
   105a0:	010a9b93          	slli	s7,s5,0x10
   105a4:	010ada93          	srli	s5,s5,0x10
   105a8:	017acab3          	xor	s5,s5,s7
   105ac:	01540433          	add	s0,s0,s5
   105b0:	0083c3b3          	xor	t2,t2,s0
   105b4:	00c39b93          	slli	s7,t2,0xc
   105b8:	0143d393          	srli	t2,t2,0x14
   105bc:	0173c3b3          	xor	t2,t2,s7
   105c0:	00730333          	add	t1,t1,t2
   105c4:	006acab3          	xor	s5,s5,t1
   105c8:	008a9b93          	slli	s7,s5,0x8
   105cc:	018ada93          	srli	s5,s5,0x18
   105d0:	017acab3          	xor	s5,s5,s7
   105d4:	01540433          	add	s0,s0,s5
   105d8:	0083c3b3          	xor	t2,t2,s0
   105dc:	00739b93          	slli	s7,t2,0x7
   105e0:	0193d393          	srli	t2,t2,0x19
   105e4:	0173c3b3          	xor	t2,t2,s7
   105e8:	00780833          	add	a6,a6,t2
   105ec:	0109c9b3          	xor	s3,s3,a6
   105f0:	01099b93          	slli	s7,s3,0x10
   105f4:	0109d993          	srli	s3,s3,0x10
   105f8:	0179c9b3          	xor	s3,s3,s7
   105fc:	013f8fb3          	add	t6,t6,s3
   10600:	01f3c3b3          	xor	t2,t2,t6
   10604:	00c39b93          	slli	s7,t2,0xc
   10608:	0143d393          	srli	t2,t2,0x14
   1060c:	0173c3b3          	xor	t2,t2,s7
   10610:	00780833          	add	a6,a6,t2
   10614:	0109c9b3          	xor	s3,s3,a6
   10618:	00899b93          	slli	s7,s3,0x8
   1061c:	0189d993          	srli	s3,s3,0x18
   10620:	0179c9b3          	xor	s3,s3,s7
   10624:	013f8fb3          	add	t6,t6,s3
   10628:	01f3c3b3          	xor	t2,t2,t6
   1062c:	00739b93          	slli	s7,t2,0x7
   10630:	0193d393          	srli	t2,t2,0x19
   10634:	0173c3b3          	xor	t2,t2,s7
   10638:	01c888b3          	add	a7,a7,t3
   1063c:	011a4a33          	xor	s4,s4,a7
   10640:	010a1b93          	slli	s7,s4,0x10
   10644:	010a5a13          	srli	s4,s4,0x10
   10648:	017a4a33          	xor	s4,s4,s7
   1064c:	01440433          	add	s0,s0,s4
   10650:	008e4e33          	xor	t3,t3,s0
   10654:	00ce1b93          	slli	s7,t3,0xc
   10658:	014e5e13          	srli	t3,t3,0x14
   1065c:	017e4e33          	xor	t3,t3,s7
   10660:	01c888b3          	add	a7,a7,t3
   10664:	011a4a33          	xor	s4,s4,a7
   10668:	008a1b93          	slli	s7,s4,0x8
   1066c:	018a5a13          	srli	s4,s4,0x18
   10670:	017a4a33          	xor	s4,s4,s7
   10674:	01440433          	add	s0,s0,s4
   10678:	008e4e33          	xor	t3,t3,s0
   1067c:	007e1b93          	slli	s7,t3,0x7
   10680:	019e5e13          	srli	t3,t3,0x19
   10684:	017e4e33          	xor	t3,t3,s7
   10688:	01d282b3          	add	t0,t0,t4
   1068c:	005acab3          	xor	s5,s5,t0
   10690:	010a9b93          	slli	s7,s5,0x10
   10694:	010ada93          	srli	s5,s5,0x10
   10698:	017acab3          	xor	s5,s5,s7
   1069c:	015484b3          	add	s1,s1,s5
   106a0:	009eceb3          	xor	t4,t4,s1
   106a4:	00ce9b93          	slli	s7,t4,0xc
   106a8:	014ede93          	srli	t4,t4,0x14
   106ac:	017eceb3          	xor	t4,t4,s7
   106b0:	01d282b3          	add	t0,t0,t4
   106b4:	005acab3          	xor	s5,s5,t0
   106b8:	008a9b93          	slli	s7,s5,0x8
   106bc:	018ada93          	srli	s5,s5,0x18
   106c0:	017acab3          	xor	s5,s5,s7
   106c4:	015484b3          	add	s1,s1,s5
   106c8:	009eceb3          	xor	t4,t4,s1
   106cc:	007e9b93          	slli	s7,t4,0x7
   106d0:	019ede93          	srli	t4,t4,0x19
   106d4:	017eceb3          	xor	t4,t4,s7
   106d8:	01e30333          	add	t1,t1,t5
   106dc:	006b4b33          	xor	s6,s6,t1
   106e0:	010b1b93          	slli	s7,s6,0x10
   106e4:	010b5b13          	srli	s6,s6,0x10
   106e8:	017b4b33          	xor	s6,s6,s7
   106ec:	01690933          	add	s2,s2,s6
   106f0:	012f4f33          	xor	t5,t5,s2
   106f4:	00cf1b93          	slli	s7,t5,0xc
   106f8:	014f5f13          	srli	t5,t5,0x14
   106fc:	017f4f33          	xor	t5,t5,s7
   10700:	01e30333          	add	t1,t1,t5
   10704:	006b4b33          	xor	s6,s6,t1
   10708:	008b1b93          	slli	s7,s6,0x8
   1070c:	018b5b13          	srli	s6,s6,0x18
   10710:	017b4b33          	xor	s6,s6,s7
   10714:	01690933          	add	s2,s2,s6
   10718:	012f4f33          	xor	t5,t5,s2
   1071c:	007f1b93          	slli	s7,t5,0x7
   10720:	019f5f13          	srli	t5,t5,0x19
   10724:	017f4f33          	xor	t5,t5,s7
   10728:	01c80833          	add	a6,a6,t3
   1072c:	010b4b33          	xor	s6,s6,a6
   10730:	010b1b93          	slli	s7,s6,0x10
   10734:	010b5b13          	srli	s6,s6,0x10
   10738:	017b4b33          	xor	s6,s6,s7
   1073c:	016484b3          	add	s1,s1,s6
   10740:	009e4e33          	xor	t3,t3,s1
   10744:	00ce1b93          	slli	s7,t3,0xc
   10748:	014e5e13          	srli	t3,t3,0x14
   1074c:	017e4e33          	xor	t3,t3,s7
   10750:	01c80833          	add	a6,a6,t3
   10754:	010b4b33          	xor	s6,s6,a6
   10758:	008b1b93          	slli	s7,s6,0x8
   1075c:	018b5b13          	srli	s6,s6,0x18
   10760:	017b4b33          	xor	s6,s6,s7
   10764:	016484b3          	add	s1,s1,s6
   10768:	009e4e33          	xor	t3,t3,s1
   1076c:	007e1b93          	slli	s7,t3,0x7
   10770:	019e5e13          	srli	t3,t3,0x19
   10774:	017e4e33          	xor	t3,t3,s7
   10778:	01d888b3          	add	a7,a7,t4
   1077c:	0119c9b3          	xor	s3,s3,a7
   10780:	01099b93          	slli	s7,s3,0x10
   10784:	0109d993          	srli	s3,s3,0x10
   10788:	0179c9b3          	xor	s3,s3,s7
   1078c:	01390933          	add	s2,s2,s3
   10790:	012eceb3          	xor	t4,t4,s2
   10794:	00ce9b93          	slli	s7,t4,0xc
   10798:	014ede93          	srli	t4,t4,0x14
   1079c:	017eceb3          	xor	t4,t4,s7
   107a0:	01d888b3          	add	a7,a7,t4
   107a4:	0119c9b3          	xor	s3,s3,a7
   107a8:	00899b93          	slli	s7,s3,0x8
   107ac:	0189d993          	srli	s3,s3,0x18
   107b0:	0179c9b3          	xor	s3,s3,s7
   107b4:	01390933          	add	s2,s2,s3
   107b8:	012eceb3          	xor	t4,t4,s2
   107bc:	007e9b93          	slli	s7,t4,0x7
   107c0:	019ede93          	srli	t4,t4,0x19
   107c4:	017eceb3          	xor	t4,t4,s7
   107c8:	01e282b3          	add	t0,t0,t5
   107cc:	005a4a33          	xor	s4,s4,t0
   107d0:	010a1b93          	slli	s7,s4,0x10
   107d4:	010a5a13          	srli	s4,s4,0x10
   107d8:	017a4a33          	xor	s4,s4,s7
   107dc:	014f8fb3          	add	t6,t6,s4
   107e0:	01ff4f33          	xor	t5,t5,t6
   107e4:	00cf1b93          	slli	s7,t5,0xc
   107e8:	014f5f13          	srli	t5,t5,0x14
   107ec:	017f4f33          	xor	t5,t5,s7
   107f0:	01e282b3          	add	t0,t0,t5
   107f4:	005a4a33          	xor	s4,s4,t0
   107f8:	008a1b93          	slli	s7,s4,0x8
   107fc:	018a5a13          	srli	s4,s4,0x18
   10800:	017a4a33          	xor	s4,s4,s7
   10804:	014f8fb3          	add	t6,t6,s4
   10808:	01ff4f33          	xor	t5,t5,t6
   1080c:	007f1b93          	slli	s7,t5,0x7
   10810:	019f5f13          	srli	t5,t5,0x19
   10814:	017f4f33          	xor	t5,t5,s7
   10818:	00730333          	add	t1,t1,t2
   1081c:	006acab3          	xor	s5,s5,t1
   10820:	010a9b93          	slli	s7,s5,0x10
   10824:	010ada93          	srli	s5,s5,0x10
   10828:	017acab3          	xor	s5,s5,s7
   1082c:	01540433          	add	s0,s0,s5
   10830:	0083c3b3          	xor	t2,t2,s0
   10834:	00c39b93          	slli	s7,t2,0xc
   10838:	0143d393          	srli	t2,t2,0x14
   1083c:	0173c3b3          	xor	t2,t2,s7
   10840:	00730333          	add	t1,t1,t2
   10844:	006acab3          	xor	s5,s5,t1
   10848:	008a9b93          	slli	s7,s5,0x8
   1084c:	018ada93          	srli	s5,s5,0x18
   10850:	017acab3          	xor	s5,s5,s7
   10854:	01540433          	add	s0,s0,s5
   10858:	0083c3b3          	xor	t2,t2,s0
   1085c:	00739b93          	slli	s7,t2,0x7
   10860:	0193d393          	srli	t2,t2,0x19
   10864:	0173c3b3          	xor	t2,t2,s7
   10868:	00780833          	add	a6,a6,t2
   1086c:	0109c9b3          	xor	s3,s3,a6
   10870:	01099b93          	slli	s7,s3,0x10
   10874:	0109d993          	srli	s3,s3,0x10
   10878:	0179c9b3          	xor	s3,s3,s7
   1087c:	013f8fb3          	add	t6,t6,s3
   10880:	01f3c3b3          	xor	t2,t2,t6
   10884:	00c39b93          	slli	s7,t2,0xc
   10888:	0143d393          	srli	t2,t2,0x14
   1088c:	0173c3b3          	xor	t2,t2,s7
   10890:	00780833          	add	a6,a6,t2
   10894:	0109c9b3          	xor	s3,s3,a6
   10898:	00899b93          	slli	s7,s3,0x8
   1089c:	0189d993          	srli	s3,s3,0x18
   108a0:	0179c9b3          	xor	s3,s3,s7
   108a4:	013f8fb3          	add	t6,t6,s3
   108a8:	01f3c3b3          	xor	t2,t2,t6
   108ac:	00739b93          	slli	s7,t2,0x7
   108b0:	0193d393          	srli	t2,t2,0x19
   108b4:	0173c3b3          	xor	t2,t2,s7
   108b8:	01c888b3          	add	a7,a7,t3
   108bc:	011a4a33          	xor	s4,s4,a7
   108c0:	010a1b93          	slli	s7,s4,0x10
   108c4:	010a5a13          	srli	s4,s4,0x10
   108c8:	017a4a33          	xor	s4,s4,s7
   108cc:	01440433          	add	s0,s0,s4
   108d0:	008e4e33          	xor	t3,t3,s0
   108d4:	00ce1b93          	slli	s7,t3,0xc
   108d8:	014e5e13          	srli	t3,t3,0x14
   108dc:	017e4e33          	xor	t3,t3,s7
   108e0:	01c888b3          	add	a7,a7,t3
   108e4:	011a4a33          	xor	s4,s4,a7
   108e8:	008a1b93          	slli	s7,s4,0x8
   108ec:	018a5a13          	srli	s4,s4,0x18
   108f0:	017a4a33          	xor	s4,s4,s7
   108f4:	01440433          	add	s0,s0,s4
   108f8:	008e4e33          	xor	t3,t3,s0
   108fc:	007e1b93          	slli	s7,t3,0x7
   10900:	019e5e13          	srli	t3,t3,0x19
   10904:	017e4e33          	xor	t3,t3,s7
   10908:	01d282b3          	add	t0,t0,t4
   1090c:	005acab3          	xor	s5,s5,t0
   10910:	010a9b93          	slli	s7,s5,0x10
   10914:	010ada93          	srli	s5,s5,0x10
   10918:	017acab3          	xor	s5,s5,s7
   1091c:	015484b3          	add	s1,s1,s5
   10920:	009eceb3          	xor	t4,t4,s1
   10924:	00ce9b93          	slli	s7,t4,0xc
   10928:	014ede93          	srli	t4,t4,0x14
   1092c:	017eceb3          	xor	t4,t4,s7
   10930:	01d282b3          	add	t0,t0,t4
   10934:	005acab3          	xor	s5,s5,t0
   10938:	008a9b93          	slli	s7,s5,0x8
   1093c:	018ada93          	srli	s5,s5,0x18
   10940:	017acab3          	xor	s5,s5,s7
   10944:	015484b3          	add	s1,s1,s5
   10948:	009eceb3          	xor	t4,t4,s1
   1094c:	007e9b93          	slli	s7,t4,0x7
   10950:	019ede93          	srli	t4,t4,0x19
   10954:	017eceb3          	xor	t4,t4,s7
   10958:	01e30333          	add	t1,t1,t5
   1095c:	006b4b33          	xor	s6,s6,t1
   10960:	010b1b93          	slli	s7,s6,0x10
   10964:	010b5b13          	srli	s6,s6,0x10
   10968:	017b4b33          	xor	s6,s6,s7
   1096c:	01690933          	add	s2,s2,s6
   10970:	012f4f33          	xor	t5,t5,s2
   10974:	00cf1b93          	slli	s7,t5,0xc
   10978:	014f5f13          	srli	t5,t5,0x14
   1097c:	017f4f33          	xor	t5,t5,s7
   10980:	01e30333          	add	t1,t1,t5
   10984:	006b4b33          	xor	s6,s6,t1
   10988:	008b1b93          	slli	s7,s6,0x8
   1098c:	018b5b13          	srli	s6,s6,0x18
   10990:	017b4b33          	xor	s6,s6,s7
   10994:	01690933          	add	s2,s2,s6
   10998:	012f4f33          	xor	t5,t5,s2
   1099c:	007f1b93          	slli	s7,t5,0x7
   109a0:	019f5f13          	srli	t5,t5,0x19
   109a4:	017f4f33          	xor	t5,t5,s7
   109a8:	01c80833          	add	a6,a6,t3
   109ac:	010b4b33          	xor	s6,s6,a6
   109b0:	010b1b93          	slli	s7,s6,0x10
   109b4:	010b5b13          	srli	s6,s6,0x10
   109b8:	017b4b33          	xor	s6,s6,s7
   109bc:	016484b3          	add	s1,s1,s6
   109c0:	009e4e33          	xor	t3,t3,s1
   109c4:	00ce1b93          	slli	s7,t3,0xc
   109c8:	014e5e13          	srli	t3,t3,0x14
   109cc:	017e4e33          	xor	t3,t3,s7
   109d0:	01c80833          	add	a6,a6,t3
   109d4:	010b4b33          	xor	s6,s6,a6
   109d8:	008b1b93          	slli	s7,s6,0x8
   109dc:	018b5b13          	srli	s6,s6,0x18
   109e0:	017b4b33          	xor	s6,s6,s7
   109e4:	016484b3          	add	s1,s1,s6
   109e8:	009e4e33          	xor	t3,t3,s1
   109ec:	007e1b93          	slli	s7,t3,0x7
   109f0:	019e5e13          	srli	t3,t3,0x19
   109f4:	017e4e33          	xor	t3,t3,s7
   109f8:	01d888b3          	add	a7,a7,t4
   109fc:	0119c9b3          	xor	s3,s3,a7
   10a00:	01099b93          	slli	s7,s3,0x10
   10a04:	0109d993          	srli	s3,s3,0x10
   10a08:	0179c9b3          	xor	s3,s3,s7
   10a0c:	01390933          	add	s2,s2,s3
   10a10:	012eceb3          	xor	t4,t4,s2
   10a14:	00ce9b93          	slli	s7,t4,0xc
   10a18:	014ede93          	srli	t4,t4,0x14
   10a1c:	017eceb3          	xor	t4,t4,s7
   10a20:	01d888b3          	add	a7,a7,t4
   10a24:	0119c9b3          	xor	s3,s3,a7
   10a28:	00899b93          	slli	s7,s3,0x8
   10a2c:	0189d993          	srli	s3,s3,0x18
   10a30:	0179c9b3          	xor	s3,s3,s7
   10a34:	01390933          	add	s2,s2,s3
   10a38:	012eceb3          	xor	t4,t4,s2
   10a3c:	007e9b93          	slli	s7,t4,0x7
   10a40:	019ede93          	srli	t4,t4,0x19
   10a44:	017eceb3          	xor	t4,t4,s7
   10a48:	01e282b3          	add	t0,t0,t5
   10a4c:	005a4a33          	xor	s4,s4,t0
   10a50:	010a1b93          	slli	s7,s4,0x10
   10a54:	010a5a13          	srli	s4,s4,0x10
   10a58:	017a4a33          	xor	s4,s4,s7
   10a5c:	014f8fb3          	add	t6,t6,s4
   10a60:	01ff4f33          	xor	t5,t5,t6
   10a64:	00cf1b93          	slli	s7,t5,0xc
   10a68:	014f5f13          	srli	t5,t5,0x14
   10a6c:	017f4f33          	xor	t5,t5,s7
   10a70:	01e282b3          	add	t0,t0,t5
   10a74:	005a4a33          	xor	s4,s4,t0
   10a78:	008a1b93          	slli	s7,s4,0x8
   10a7c:	018a5a13          	srli	s4,s4,0x18
   10a80:	017a4a33          	xor	s4,s4,s7
   10a84:	014f8fb3          	add	t6,t6,s4
   10a88:	01ff4f33          	xor	t5,t5,t6
   10a8c:	007f1b93          	slli	s7,t5,0x7
   10a90:	019f5f13          	srli	t5,t5,0x19
   10a94:	017f4f33          	xor	t5,t5,s7
   10a98:	00730333          	add	t1,t1,t2
   10a9c:	006acab3          	xor	s5,s5,t1
   10aa0:	010a9b93          	slli	s7,s5,0x10
   10aa4:	010ada93          	srli	s5,s5,0x10
   10aa8:	017acab3          	xor	s5,s5,s7
   10aac:	01540433          	add	s0,s0,s5
   10ab0:	0083c3b3          	xor	t2,t2,s0
   10ab4:	00c39b93          	slli	s7,t2,0xc
   10ab8:	0143d393          	srli	t2,t2,0x14
   10abc:	0173c3b3          	xor	t2,t2,s7
   10ac0:	00730333          	add	t1,t1,t2
   10ac4:	006acab3          	xor	s5,s5,t1
   10ac8:	008a9b93          	slli	s7,s5,0x8
   10acc:	018ada93          	srli	s5,s5,0x18
   10ad0:	017acab3          	xor	s5,s5,s7
   10ad4:	01540433          	add	s0,s0,s5
   10ad8:	0083c3b3          	xor	t2,t2,s0
   10adc:	00739b93          	slli	s7,t2,0x7
   10ae0:	0193d393          	srli	t2,t2,0x19
   10ae4:	0173c3b3          	xor	t2,t2,s7
   10ae8:	00780833          	add	a6,a6,t2
   10aec:	0109c9b3          	xor	s3,s3,a6
   10af0:	01099b93          	slli	s7,s3,0x10
   10af4:	0109d993          	srli	s3,s3,0x10
   10af8:	0179c9b3          	xor	s3,s3,s7
   10afc:	013f8fb3          	add	t6,t6,s3
   10b00:	01f3c3b3          	xor	t2,t2,t6
   10b04:	00c39b93          	slli	s7,t2,0xc
   10b08:	0143d393          	srli	t2,t2,0x14
   10b0c:	0173c3b3          	xor	t2,t2,s7
   10b10:	00780833          	add	a6,a6,t2
   10b14:	0109c9b3          	xor	s3,s3,a6
   10b18:	00899b93          	slli	s7,s3,0x8
   10b1c:	0189d993          	srli	s3,s3,0x18
   10b20:	0179c9b3          	xor	s3,s3,s7
   10b24:	013f8fb3          	add	t6,t6,s3
   10b28:	01f3c3b3          	xor	t2,t2,t6
   10b2c:	00739b93          	slli	s7,t2,0x7
   10b30:	0193d393          	srli	t2,t2,0x19
   10b34:	0173c3b3          	xor	t2,t2,s7
   10b38:	01c888b3          	add	a7,a7,t3
   10b3c:	011a4a33          	xor	s4,s4,a7
   10b40:	010a1b93          	slli	s7,s4,0x10
   10b44:	010a5a13          	srli	s4,s4,0x10
   10b48:	017a4a33          	xor	s4,s4,s7
   10b4c:	01440433          	add	s0,s0,s4
   10b50:	008e4e33          	xor	t3,t3,s0
   10b54:	00ce1b93          	slli	s7,t3,0xc
   10b58:	014e5e13          	srli	t3,t3,0x14
   10b5c:	017e4e33          	xor	t3,t3,s7
   10b60:	01c888b3          	add	a7,a7,t3
   10b64:	011a4a33          	xor	s4,s4,a7
   10b68:	008a1b93          	slli	s7,s4,0x8
   10b6c:	018a5a13          	srli	s4,s4,0x18
   10b70:	017a4a33          	xor	s4,s4,s7
   10b74:	01440433          	add	s0,s0,s4
   10b78:	008e4e33          	xor	t3,t3,s0
   10b7c:	007e1b93          	slli	s7,t3,0x7
   10b80:	019e5e13          	srli	t3,t3,0x19
   10b84:	017e4e33          	xor	t3,t3,s7
   10b88:	01d282b3          	add	t0,t0,t4
   10b8c:	005acab3          	xor	s5,s5,t0
   10b90:	010a9b93          	slli	s7,s5,0x10
   10b94:	010ada93          	srli	s5,s5,0x10
   10b98:	017acab3          	xor	s5,s5,s7
   10b9c:	015484b3          	add	s1,s1,s5
   10ba0:	009eceb3          	xor	t4,t4,s1
   10ba4:	00ce9b93          	slli	s7,t4,0xc
   10ba8:	014ede93          	srli	t4,t4,0x14
   10bac:	017eceb3          	xor	t4,t4,s7
   10bb0:	01d282b3          	add	t0,t0,t4
   10bb4:	005acab3          	xor	s5,s5,t0
   10bb8:	008a9b93          	slli	s7,s5,0x8
   10bbc:	018ada93          	srli	s5,s5,0x18
   10bc0:	017acab3          	xor	s5,s5,s7
   10bc4:	015484b3          	add	s1,s1,s5
   10bc8:	009eceb3          	xor	t4,t4,s1
   10bcc:	007e9b93          	slli	s7,t4,0x7
   10bd0:	019ede93          	srli	t4,t4,0x19
   10bd4:	017eceb3          	xor	t4,t4,s7
   10bd8:	01e30333          	add	t1,t1,t5
   10bdc:	006b4b33          	xor	s6,s6,t1
   10be0:	010b1b93          	slli	s7,s6,0x10
   10be4:	010b5b13          	srli	s6,s6,0x10
   10be8:	017b4b33          	xor	s6,s6,s7
   10bec:	01690933          	add	s2,s2,s6
   10bf0:	012f4f33          	xor	t5,t5,s2
   10bf4:	00cf1b93          	slli	s7,t5,0xc
   10bf8:	014f5f13          	srli	t5,t5,0x14
   10bfc:	017f4f33          	xor	t5,t5,s7
   10c00:	01e30333          	add	t1,t1,t5
   10c04:	006b4b33          	xor	s6,s6,t1
   10c08:	008b1b93          	slli	s7,s6,0x8
   10c0c:	018b5b13          	srli	s6,s6,0x18
   10c10:	017b4b33          	xor	s6,s6,s7
   10c14:	01690933          	add	s2,s2,s6
   10c18:	012f4f33          	xor	t5,t5,s2
   10c1c:	007f1b93          	slli	s7,t5,0x7
   10c20:	019f5f13          	srli	t5,t5,0x19
   10c24:	017f4f33          	xor	t5,t5,s7
   10c28:	01c80833          	add	a6,a6,t3
   10c2c:	010b4b33          	xor	s6,s6,a6
   10c30:	010b1b93          	slli	s7,s6,0x10
   10c34:	010b5b13          	srli	s6,s6,0x10
   10c38:	017b4b33          	xor	s6,s6,s7
   10c3c:	016484b3          	add	s1,s1,s6
   10c40:	009e4e33          	xor	t3,t3,s1
   10c44:	00ce1b93          	slli	s7,t3,0xc
   10c48:	014e5e13          	srli	t3,t3,0x14
   10c4c:	017e4e33          	xor	t3,t3,s7
   10c50:	01c80833          	add	a6,a6,t3
   10c54:	010b4b33          	xor	s6,s6,a6
   10c58:	008b1b93          	slli	s7,s6,0x8
   10c5c:	018b5b13          	srli	s6,s6,0x18
   10c60:	017b4b33          	xor	s6,s6,s7
   10c64:	016484b3          	add	s1,s1,s6
   10c68:	009e4e33          	xor	t3,t3,s1
   10c6c:	007e1b93          	slli	s7,t3,0x7
   10c70:	019e5e13          	srli	t3,t3,0x19
   10c74:	017e4e33          	xor	t3,t3,s7
   10c78:	01d888b3          	add	a7,a7,t4
   10c7c:	0119c9b3          	xor	s3,s3,a7
   10c80:	01099b93          	slli	s7,s3,0x10
   10c84:	0109d993          	srli	s3,s3,0x10
   10c88:	0179c9b3          	xor	s3,s3,s7
   10c8c:	01390933          	add	s2,s2,s3
   10c90:	012eceb3          	xor	t4,t4,s2
   10c94:	00ce9b93          	slli	s7,t4,0xc
   10c98:	014ede93          	srli	t4,t4,0x14
   10c9c:	017eceb3          	xor	t4,t4,s7
   10ca0:	01d888b3          	add	a7,a7,t4
   10ca4:	0119c9b3          	xor	s3,s3,a7
   10ca8:	00899b93          	slli	s7,s3,0x8
   10cac:	0189d993          	srli	s3,s3,0x18
   10cb0:	0179c9b3          	xor	s3,s3,s7
   10cb4:	01390933          	add	s2,s2,s3
   10cb8:	012eceb3          	xor	t4,t4,s2
   10cbc:	007e9b93          	slli	s7,t4,0x7
   10cc0:	019ede93          	srli	t4,t4,0x19
   10cc4:	017eceb3          	xor	t4,t4,s7
   10cc8:	01e282b3          	add	t0,t0,t5
   10ccc:	005a4a33          	xor	s4,s4,t0
   10cd0:	010a1b93          	slli	s7,s4,0x10
   10cd4:	010a5a13          	srli	s4,s4,0x10
   10cd8:	017a4a33          	xor	s4,s4,s7
   10cdc:	014f8fb3          	add	t6,t6,s4
   10ce0:	01ff4f33          	xor	t5,t5,t6
   10ce4:	00cf1b93          	slli	s7,t5,0xc
   10ce8:	014f5f13          	srli	t5,t5,0x14
   10cec:	017f4f33          	xor	t5,t5,s7
   10cf0:	01e282b3          	add	t0,t0,t5
   10cf4:	005a4a33          	xor	s4,s4,t0
   10cf8:	008a1b93          	slli	s7,s4,0x8
   10cfc:	018a5a13          	srli	s4,s4,0x18
   10d00:	017a4a33          	xor	s4,s4,s7
   10d04:	014f8fb3          	add	t6,t6,s4
   10d08:	01ff4f33          	xor	t5,t5,t6
   10d0c:	007f1b93          	slli	s7,t5,0x7
   10d10:	019f5f13          	srli	t5,t5,0x19
   10d14:	017f4f33          	xor	t5,t5,s7
   10d18:	00730333          	add	t1,t1,t2
   10d1c:	006acab3          	xor	s5,s5,t1
   10d20:	010a9b93          	slli	s7,s5,0x10
   10d24:	010ada93          	srli	s5,s5,0x10
   10d28:	017acab3          	xor	s5,s5,s7
   10d2c:	01540433          	add	s0,s0,s5
   10d30:	0083c3b3          	xor	t2,t2,s0
   10d34:	00c39b93          	slli	s7,t2,0xc
   10d38:	0143d393          	srli	t2,t2,0x14
   10d3c:	0173c3b3          	xor	t2,t2,s7
   10d40:	00730333          	add	t1,t1,t2
   10d44:	006acab3          	xor	s5,s5,t1
   10d48:	008a9b93          	slli	s7,s5,0x8
   10d4c:	018ada93          	srli	s5,s5,0x18
   10d50:	017acab3          	xor	s5,s5,s7
   10d54:	01540433          	add	s0,s0,s5
   10d58:	0083c3b3          	xor	t2,t2,s0
   10d5c:	00739b93          	slli	s7,t2,0x7
   10d60:	0193d393          	srli	t2,t2,0x19
   10d64:	0173c3b3          	xor	t2,t2,s7
   10d68:	00780833          	add	a6,a6,t2
   10d6c:	0109c9b3          	xor	s3,s3,a6
   10d70:	01099b93          	slli	s7,s3,0x10
   10d74:	0109d993          	srli	s3,s3,0x10
   10d78:	0179c9b3          	xor	s3,s3,s7
   10d7c:	013f8fb3          	add	t6,t6,s3
   10d80:	01f3c3b3          	xor	t2,t2,t6
   10d84:	00c39b93          	slli	s7,t2,0xc
   10d88:	0143d393          	srli	t2,t2,0x14
   10d8c:	0173c3b3          	xor	t2,t2,s7
   10d90:	00780833          	add	a6,a6,t2
   10d94:	0109c9b3          	xor	s3,s3,a6
   10d98:	00899b93          	slli	s7,s3,0x8
   10d9c:	0189d993          	srli	s3,s3,0x18
   10da0:	0179c9b3          	xor	s3,s3,s7
   10da4:	013f8fb3          	add	t6,t6,s3
   10da8:	01f3c3b3          	xor	t2,t2,t6
   10dac:	00739b93          	slli	s7,t2,0x7
   10db0:	0193d393          	srli	t2,t2,0x19
   10db4:	0173c3b3          	xor	t2,t2,s7
   10db8:	01c888b3          	add	a7,a7,t3
   10dbc:	011a4a33          	xor	s4,s4,a7
   10dc0:	010a1b93          	slli	s7,s4,0x10
   10dc4:	010a5a13          	srli	s4,s4,0x10
   10dc8:	017a4a33          	xor	s4,s4,s7
   10dcc:	01440433          	add	s0,s0,s4
   10dd0:	008e4e33          	xor	t3,t3,s0
   10dd4:	00ce1b93          	slli	s7,t3,0xc
   10dd8:	014e5e13          	srli	t3,t3,0x14
   10ddc:	017e4e33          	xor	t3,t3,s7
   10de0:	01c888b3          	add	a7,a7,t3
   10de4:	011a4a33          	xor	s4,s4,a7
   10de8:	008a1b93          	slli	s7,s4,0x8
   10dec:	018a5a13          	srli	s4,s4,0x18
   10df0:	017a4a33          	xor	s4,s4,s7
   10df4:	01440433          	add	s0,s0,s4
   10df8:	008e4e33          	xor	t3,t3,s0
   10dfc:	007e1b93          	slli	s7,t3,0x7
   10e00:	019e5e13          	srli	t3,t3,0x19
   10e04:	017e4e33          	xor	t3,t3,s7
   10e08:	01d282b3          	add	t0,t0,t4
   10e0c:	005acab3          	xor	s5,s5,t0
   10e10:	010a9b93          	slli	s7,s5,0x10
   10e14:	010ada93          	srli	s5,s5,0x10
   10e18:	017acab3          	xor	s5,s5,s7
   10e1c:	015484b3          	add	s1,s1,s5
   10e20:	009eceb3          	xor	t4,t4,s1
   10e24:	00ce9b93          	slli	s7,t4,0xc
   10e28:	014ede93          	srli	t4,t4,0x14
   10e2c:	017eceb3          	xor	t4,t4,s7
   10e30:	01d282b3          	add	t0,t0,t4
   10e34:	005acab3          	xor	s5,s5,t0
   10e38:	008a9b93          	slli	s7,s5,0x8
   10e3c:	018ada93          	srli	s5,s5,0x18
   10e40:	017acab3          	xor	s5,s5,s7
   10e44:	015484b3          	add	s1,s1,s5
   10e48:	009eceb3          	xor	t4,t4,s1
   10e4c:	007e9b93          	slli	s7,t4,0x7
   10e50:	019ede93          	srli	t4,t4,0x19
   10e54:	017eceb3          	xor	t4,t4,s7
   10e58:	01e30333          	add	t1,t1,t5
   10e5c:	006b4b33          	xor	s6,s6,t1
   10e60:	010b1b93          	slli	s7,s6,0x10
   10e64:	010b5b13          	srli	s6,s6,0x10
   10e68:	017b4b33          	xor	s6,s6,s7
   10e6c:	01690933          	add	s2,s2,s6
   10e70:	012f4f33          	xor	t5,t5,s2
   10e74:	00cf1b93          	slli	s7,t5,0xc
   10e78:	014f5f13          	srli	t5,t5,0x14
   10e7c:	017f4f33          	xor	t5,t5,s7
   10e80:	01e30333          	add	t1,t1,t5
   10e84:	006b4b33          	xor	s6,s6,t1
   10e88:	008b1b93          	slli	s7,s6,0x8
   10e8c:	018b5b13          	srli	s6,s6,0x18
   10e90:	017b4b33          	xor	s6,s6,s7
   10e94:	01690933          	add	s2,s2,s6
   10e98:	012f4f33          	xor	t5,t5,s2
   10e9c:	007f1b93          	slli	s7,t5,0x7
   10ea0:	019f5f13          	srli	t5,t5,0x19
   10ea4:	017f4f33          	xor	t5,t5,s7
   10ea8:	01c80833          	add	a6,a6,t3
   10eac:	010b4b33          	xor	s6,s6,a6
   10eb0:	010b1b93          	slli	s7,s6,0x10
   10eb4:	010b5b13          	srli	s6,s6,0x10
   10eb8:	017b4b33          	xor	s6,s6,s7
   10ebc:	016484b3          	add	s1,s1,s6
   10ec0:	009e4e33          	xor	t3,t3,s1
   10ec4:	00ce1b93          	slli	s7,t3,0xc
   10ec8:	014e5e13          	srli	t3,t3,0x14
   10ecc:	017e4e33          	xor	t3,t3,s7
   10ed0:	01c80833          	add	a6,a6,t3
   10ed4:	010b4b33          	xor	s6,s6,a6
   10ed8:	008b1b93          	slli	s7,s6,0x8
   10edc:	018b5b13          	srli	s6,s6,0x18
   10ee0:	017b4b33          	xor	s6,s6,s7
   10ee4:	016484b3          	add	s1,s1,s6
   10ee8:	009e4e33          	xor	t3,t3,s1
   10eec:	007e1b93          	slli	s7,t3,0x7
   10ef0:	019e5e13          	srli	t3,t3,0x19
   10ef4:	017e4e33          	xor	t3,t3,s7
   10ef8:	01d888b3          	add	a7,a7,t4
   10efc:	0119c9b3          	xor	s3,s3,a7
   10f00:	01099b93          	slli	s7,s3,0x10
   10f04:	0109d993          	srli	s3,s3,0x10
   10f08:	0179c9b3          	xor	s3,s3,s7
   10f0c:	01390933          	add	s2,s2,s3
   10f10:	012eceb3          	xor	t4,t4,s2
   10f14:	00ce9b93          	slli	s7,t4,0xc
   10f18:	014ede93          	srli	t4,t4,0x14
   10f1c:	017eceb3          	xor	t4,t4,s7
   10f20:	01d888b3          	add	a7,a7,t4
   10f24:	0119c9b3          	xor	s3,s3,a7
   10f28:	00899b93          	slli	s7,s3,0x8
   10f2c:	0189d993          	srli	s3,s3,0x18
   10f30:	0179c9b3          	xor	s3,s3,s7
   10f34:	01390933          	add	s2,s2,s3
   10f38:	012eceb3          	xor	t4,t4,s2
   10f3c:	007e9b93          	slli	s7,t4,0x7
   10f40:	019ede93          	srli	t4,t4,0x19
   10f44:	017eceb3          	xor	t4,t4,s7
   10f48:	01e282b3          	add	t0,t0,t5
   10f4c:	005a4a33          	xor	s4,s4,t0
   10f50:	010a1b93          	slli	s7,s4,0x10
   10f54:	010a5a13          	srli	s4,s4,0x10
   10f58:	017a4a33          	xor	s4,s4,s7
   10f5c:	014f8fb3          	add	t6,t6,s4
   10f60:	01ff4f33          	xor	t5,t5,t6
   10f64:	00cf1b93          	slli	s7,t5,0xc
   10f68:	014f5f13          	srli	t5,t5,0x14
   10f6c:	017f4f33          	xor	t5,t5,s7
   10f70:	01e282b3          	add	t0,t0,t5
   10f74:	005a4a33          	xor	s4,s4,t0
   10f78:	008a1b93          	slli	s7,s4,0x8
   10f7c:	018a5a13          	srli	s4,s4,0x18
   10f80:	017a4a33          	xor	s4,s4,s7
   10f84:	014f8fb3          	add	t6,t6,s4
   10f88:	01ff4f33          	xor	t5,t5,t6
   10f8c:	007f1b93          	slli	s7,t5,0x7
   10f90:	019f5f13          	srli	t5,t5,0x19
   10f94:	017f4f33          	xor	t5,t5,s7
   10f98:	00730333          	add	t1,t1,t2
   10f9c:	006acab3          	xor	s5,s5,t1
   10fa0:	010a9b93          	slli	s7,s5,0x10
   10fa4:	010ada93          	srli	s5,s5,0x10
   10fa8:	017acab3          	xor	s5,s5,s7
   10fac:	01540433          	add	s0,s0,s5
   10fb0:	0083c3b3          	xor	t2,t2,s0
   10fb4:	00c39b93          	slli	s7,t2,0xc
   10fb8:	0143d393          	srli	t2,t2,0x14
   10fbc:	0173c3b3          	xor	t2,t2,s7
   10fc0:	00730333          	add	t1,t1,t2
   10fc4:	006acab3          	xor	s5,s5,t1
   10fc8:	008a9b93          	slli	s7,s5,0x8
   10fcc:	018ada93          	srli	s5,s5,0x18
   10fd0:	017acab3          	xor	s5,s5,s7
   10fd4:	01540433          	add	s0,s0,s5
   10fd8:	0083c3b3          	xor	t2,t2,s0
   10fdc:	00739b93          	slli	s7,t2,0x7
   10fe0:	0193d393          	srli	t2,t2,0x19
   10fe4:	0173c3b3          	xor	t2,t2,s7
   10fe8:	00780833          	add	a6,a6,t2
   10fec:	0109c9b3          	xor	s3,s3,a6
   10ff0:	01099b93          	slli	s7,s3,0x10
   10ff4:	0109d993          	srli	s3,s3,0x10
   10ff8:	0179c9b3          	xor	s3,s3,s7
   10ffc:	013f8fb3          	add	t6,t6,s3
   11000:	01f3c3b3          	xor	t2,t2,t6
   11004:	00c39b93          	slli	s7,t2,0xc
   11008:	0143d393          	srli	t2,t2,0x14
   1100c:	0173c3b3          	xor	t2,t2,s7
   11010:	00780833          	add	a6,a6,t2
   11014:	0109c9b3          	xor	s3,s3,a6
   11018:	00899b93          	slli	s7,s3,0x8
   1101c:	0189d993          	srli	s3,s3,0x18
   11020:	0179c9b3          	xor	s3,s3,s7
   11024:	013f8fb3          	add	t6,t6,s3
   11028:	01f3c3b3          	xor	t2,t2,t6
   1102c:	00739b93          	slli	s7,t2,0x7
   11030:	0193d393          	srli	t2,t2,0x19
   11034:	0173c3b3          	xor	t2,t2,s7
   11038:	01c888b3          	add	a7,a7,t3
   1103c:	011a4a33          	xor	s4,s4,a7
   11040:	010a1b93          	slli	s7,s4,0x10
   11044:	010a5a13          	srli	s4,s4,0x10
   11048:	017a4a33          	xor	s4,s4,s7
   1104c:	01440433          	add	s0,s0,s4
   11050:	008e4e33          	xor	t3,t3,s0
   11054:	00ce1b93          	slli	s7,t3,0xc
   11058:	014e5e13          	srli	t3,t3,0x14
   1105c:	017e4e33          	xor	t3,t3,s7
   11060:	01c888b3          	add	a7,a7,t3
   11064:	011a4a33          	xor	s4,s4,a7
   11068:	008a1b93          	slli	s7,s4,0x8
   1106c:	018a5a13          	srli	s4,s4,0x18
   11070:	017a4a33          	xor	s4,s4,s7
   11074:	01440433          	add	s0,s0,s4
   11078:	008e4e33          	xor	t3,t3,s0
   1107c:	007e1b93          	slli	s7,t3,0x7
   11080:	019e5e13          	srli	t3,t3,0x19
   11084:	017e4e33          	xor	t3,t3,s7
   11088:	01d282b3          	add	t0,t0,t4
   1108c:	005acab3          	xor	s5,s5,t0
   11090:	010a9b93          	slli	s7,s5,0x10
   11094:	010ada93          	srli	s5,s5,0x10
   11098:	017acab3          	xor	s5,s5,s7
   1109c:	015484b3          	add	s1,s1,s5
   110a0:	009eceb3          	xor	t4,t4,s1
   110a4:	00ce9b93          	slli	s7,t4,0xc
   110a8:	014ede93          	srli	t4,t4,0x14
   110ac:	017eceb3          	xor	t4,t4,s7
   110b0:	01d282b3          	add	t0,t0,t4
   110b4:	005acab3          	xor	s5,s5,t0
   110b8:	008a9b93          	slli	s7,s5,0x8
   110bc:	018ada93          	srli	s5,s5,0x18
   110c0:	017acab3          	xor	s5,s5,s7
   110c4:	015484b3          	add	s1,s1,s5
   110c8:	009eceb3          	xor	t4,t4,s1
   110cc:	007e9b93          	slli	s7,t4,0x7
   110d0:	019ede93          	srli	t4,t4,0x19
   110d4:	017eceb3          	xor	t4,t4,s7
   110d8:	01e30333          	add	t1,t1,t5
   110dc:	006b4b33          	xor	s6,s6,t1
   110e0:	010b1b93          	slli	s7,s6,0x10
   110e4:	010b5b13          	srli	s6,s6,0x10
   110e8:	017b4b33          	xor	s6,s6,s7
   110ec:	01690933          	add	s2,s2,s6
   110f0:	012f4f33          	xor	t5,t5,s2
   110f4:	00cf1b93          	slli	s7,t5,0xc
   110f8:	014f5f13          	srli	t5,t5,0x14
   110fc:	017f4f33          	xor	t5,t5,s7
   11100:	01e30333          	add	t1,t1,t5
   11104:	006b4b33          	xor	s6,s6,t1
   11108:	008b1b93          	slli	s7,s6,0x8
   1110c:	018b5b13          	srli	s6,s6,0x18
   11110:	017b4b33          	xor	s6,s6,s7
   11114:	01690933          	add	s2,s2,s6
   11118:	012f4f33          	xor	t5,t5,s2
   1111c:	007f1b93          	slli	s7,t5,0x7
   11120:	019f5f13          	srli	t5,t5,0x19
   11124:	017f4f33          	xor	t5,t5,s7
   11128:	01c80833          	add	a6,a6,t3
   1112c:	010b4b33          	xor	s6,s6,a6
   11130:	010b1b93          	slli	s7,s6,0x10
   11134:	010b5b13          	srli	s6,s6,0x10
   11138:	017b4b33          	xor	s6,s6,s7
   1113c:	016484b3          	add	s1,s1,s6
   11140:	009e4e33          	xor	t3,t3,s1
   11144:	00ce1b93          	slli	s7,t3,0xc
   11148:	014e5e13          	srli	t3,t3,0x14
   1114c:	017e4e33          	xor	t3,t3,s7
   11150:	01c80833          	add	a6,a6,t3
   11154:	010b4b33          	xor	s6,s6,a6
   11158:	008b1b93          	slli	s7,s6,0x8
   1115c:	018b5b13          	srli	s6,s6,0x18
   11160:	017b4b33          	xor	s6,s6,s7
   11164:	016484b3          	add	s1,s1,s6
   11168:	009e4e33          	xor	t3,t3,s1
   1116c:	007e1b93          	slli	s7,t3,0x7
   11170:	019e5e13          	srli	t3,t3,0x19
   11174:	017e4e33          	xor	t3,t3,s7
   11178:	01d888b3          	add	a7,a7,t4
   1117c:	0119c9b3          	xor	s3,s3,a7
   11180:	01099b93          	slli	s7,s3,0x10
   11184:	0109d993          	srli	s3,s3,0x10
   11188:	0179c9b3          	xor	s3,s3,s7
   1118c:	01390933          	add	s2,s2,s3
   11190:	012eceb3          	xor	t4,t4,s2
   11194:	00ce9b93          	slli	s7,t4,0xc
   11198:	014ede93          	srli	t4,t4,0x14
   1119c:	017eceb3          	xor	t4,t4,s7
   111a0:	01d888b3          	add	a7,a7,t4
   111a4:	0119c9b3          	xor	s3,s3,a7
   111a8:	00899b93          	slli	s7,s3,0x8
   111ac:	0189d993          	srli	s3,s3,0x18
   111b0:	0179c9b3          	xor	s3,s3,s7
   111b4:	01390933          	add	s2,s2,s3
   111b8:	012eceb3          	xor	t4,t4,s2
   111bc:	007e9b93          	slli	s7,t4,0x7
   111c0:	019ede93          	srli	t4,t4,0x19
   111c4:	017eceb3          	xor	t4,t4,s7
   111c8:	01e282b3          	add	t0,t0,t5
   111cc:	005a4a33          	xor	s4,s4,t0
   111d0:	010a1b93          	slli	s7,s4,0x10
   111d4:	010a5a13          	srli	s4,s4,0x10
   111d8:	017a4a33          	xor	s4,s4,s7
   111dc:	014f8fb3          	add	t6,t6,s4
   111e0:	01ff4f33          	xor	t5,t5,t6
   111e4:	00cf1b93          	slli	s7,t5,0xc
   111e8:	014f5f13          	srli	t5,t5,0x14
   111ec:	017f4f33          	xor	t5,t5,s7
   111f0:	01e282b3          	add	t0,t0,t5
   111f4:	005a4a33          	xor	s4,s4,t0
   111f8:	008a1b93          	slli	s7,s4,0x8
   111fc:	018a5a13          	srli	s4,s4,0x18
   11200:	017a4a33          	xor	s4,s4,s7
   11204:	014f8fb3          	add	t6,t6,s4
   11208:	01ff4f33          	xor	t5,t5,t6
   1120c:	007f1b93          	slli	s7,t5,0x7
   11210:	019f5f13          	srli	t5,t5,0x19
   11214:	017f4f33          	xor	t5,t5,s7
   11218:	00730333          	add	t1,t1,t2
   1121c:	006acab3          	xor	s5,s5,t1
   11220:	010a9b93          	slli	s7,s5,0x10
   11224:	010ada93          	srli	s5,s5,0x10
   11228:	017acab3          	xor	s5,s5,s7
   1122c:	01540433          	add	s0,s0,s5
   11230:	0083c3b3          	xor	t2,t2,s0
   11234:	00c39b93          	slli	s7,t2,0xc
   11238:	0143d393          	srli	t2,t2,0x14
   1123c:	0173c3b3          	xor	t2,t2,s7
   11240:	00730333          	add	t1,t1,t2
   11244:	006acab3          	xor	s5,s5,t1
   11248:	008a9b93          	slli	s7,s5,0x8
   1124c:	018ada93          	srli	s5,s5,0x18
   11250:	017acab3          	xor	s5,s5,s7
   11254:	01540433          	add	s0,s0,s5
   11258:	0083c3b3          	xor	t2,t2,s0
   1125c:	00739b93          	slli	s7,t2,0x7
   11260:	0193d393          	srli	t2,t2,0x19
   11264:	0173c3b3          	xor	t2,t2,s7
   11268:	00780833          	add	a6,a6,t2
   1126c:	0109c9b3          	xor	s3,s3,a6
   11270:	01099b93          	slli	s7,s3,0x10
   11274:	0109d993          	srli	s3,s3,0x10
   11278:	0179c9b3          	xor	s3,s3,s7
   1127c:	013f8fb3          	add	t6,t6,s3
   11280:	01f3c3b3          	xor	t2,t2,t6
   11284:	00c39b93          	slli	s7,t2,0xc
   11288:	0143d393          	srli	t2,t2,0x14
   1128c:	0173c3b3          	xor	t2,t2,s7
   11290:	00780833          	add	a6,a6,t2
   11294:	0109c9b3          	xor	s3,s3,a6
   11298:	00899b93          	slli	s7,s3,0x8
   1129c:	0189d993          	srli	s3,s3,0x18
   112a0:	0179c9b3          	xor	s3,s3,s7
   112a4:	013f8fb3          	add	t6,t6,s3
   112a8:	01f3c3b3          	xor	t2,t2,t6
   112ac:	00739b93          	slli	s7,t2,0x7
   112b0:	0193d393          	srli	t2,t2,0x19
   112b4:	0173c3b3          	xor	t2,t2,s7
   112b8:	01c888b3          	add	a7,a7,t3
   112bc:	011a4a33          	xor	s4,s4,a7
   112c0:	010a1b93          	slli	s7,s4,0x10
   112c4:	010a5a13          	srli	s4,s4,0x10
   112c8:	017a4a33          	xor	s4,s4,s7
   112cc:	01440433          	add	s0,s0,s4
   112d0:	008e4e33          	xor	t3,t3,s0
   112d4:	00ce1b93          	slli	s7,t3,0xc
   112d8:	014e5e13          	srli	t3,t3,0x14
   112dc:	017e4e33          	xor	t3,t3,s7
   112e0:	01c888b3          	add	a7,a7,t3
   112e4:	011a4a33          	xor	s4,s4,a7
   112e8:	008a1b93          	slli	s7,s4,0x8
   112ec:	018a5a13          	srli	s4,s4,0x18
   112f0:	017a4a33          	xor	s4,s4,s7
   112f4:	01440433          	add	s0,s0,s4
   112f8:	008e4e33          	xor	t3,t3,s0
   112fc:	007e1b93          	slli	s7,t3,0x7
   11300:	019e5e13          	srli	t3,t3,0x19
   11304:	017e4e33          	xor	t3,t3,s7
   11308:	01d282b3          	add	t0,t0,t4
   1130c:	005acab3          	xor	s5,s5,t0
   11310:	010a9b93          	slli	s7,s5,0x10
   11314:	010ada93          	srli	s5,s5,0x10
   11318:	017acab3          	xor	s5,s5,s7
   1131c:	015484b3          	add	s1,s1,s5
   11320:	009eceb3          	xor	t4,t4,s1
   11324:	00ce9b93          	slli	s7,t4,0xc
   11328:	014ede93          	srli	t4,t4,0x14
   1132c:	017eceb3          	xor	t4,t4,s7
   11330:	01d282b3          	add	t0,t0,t4
   11334:	005acab3          	xor	s5,s5,t0
   11338:	008a9b93          	slli	s7,s5,0x8
   1133c:	018ada93          	srli	s5,s5,0x18
   11340:	017acab3          	xor	s5,s5,s7
   11344:	015484b3          	add	s1,s1,s5
   11348:	009eceb3          	xor	t4,t4,s1
   1134c:	007e9b93          	slli	s7,t4,0x7
   11350:	019ede93          	srli	t4,t4,0x19
   11354:	017eceb3          	xor	t4,t4,s7
   11358:	01e30333          	add	t1,t1,t5
   1135c:	006b4b33          	xor	s6,s6,t1
   11360:	010b1b93          	slli	s7,s6,0x10
   11364:	010b5b13          	srli	s6,s6,0x10
   11368:	017b4b33          	xor	s6,s6,s7
   1136c:	01690933          	add	s2,s2,s6
   11370:	012f4f33          	xor	t5,t5,s2
   11374:	00cf1b93          	slli	s7,t5,0xc
   11378:	014f5f13          	srli	t5,t5,0x14
   1137c:	017f4f33          	xor	t5,t5,s7
   11380:	01e30333          	add	t1,t1,t5
   11384:	006b4b33          	xor	s6,s6,t1
   11388:	008b1b93          	slli	s7,s6,0x8
   1138c:	018b5b13          	srli	s6,s6,0x18
   11390:	017b4b33          	xor	s6,s6,s7
   11394:	01690933          	add	s2,s2,s6
   11398:	012f4f33          	xor	t5,t5,s2
   1139c:	007f1b93          	slli	s7,t5,0x7
   113a0:	019f5f13          	srli	t5,t5,0x19
   113a4:	017f4f33          	xor	t5,t5,s7
   113a8:	01c80833          	add	a6,a6,t3
   113ac:	010b4b33          	xor	s6,s6,a6
   113b0:	010b1b93          	slli	s7,s6,0x10
   113b4:	010b5b13          	srli	s6,s6,0x10
   113b8:	017b4b33          	xor	s6,s6,s7
   113bc:	016484b3          	add	s1,s1,s6
   113c0:	009e4e33          	xor	t3,t3,s1
   113c4:	00ce1b93          	slli	s7,t3,0xc
   113c8:	014e5e13          	srli	t3,t3,0x14
   113cc:	017e4e33          	xor	t3,t3,s7
   113d0:	01c80833          	add	a6,a6,t3
   113d4:	010b4b33          	xor	s6,s6,a6
   113d8:	008b1b93          	slli	s7,s6,0x8
   113dc:	018b5b13          	srli	s6,s6,0x18
   113e0:	017b4b33          	xor	s6,s6,s7
   113e4:	016484b3          	add	s1,s1,s6
   113e8:	009e4e33          	xor	t3,t3,s1
   113ec:	007e1b93          	slli	s7,t3,0x7
   113f0:	019e5e13          	srli	t3,t3,0x19
   113f4:	017e4e33          	xor	t3,t3,s7
   113f8:	01d888b3          	add	a7,a7,t4
   113fc:	0119c9b3          	xor	s3,s3,a7
   11400:	01099b93          	slli	s7,s3,0x10
   11404:	0109d993          	srli	s3,s3,0x10
   11408:	0179c9b3          	xor	s3,s3,s7
   1140c:	01390933          	add	s2,s2,s3
   11410:	012eceb3          	xor	t4,t4,s2
   11414:	00ce9b93          	slli	s7,t4,0xc
   11418:	014ede93          	srli	t4,t4,0x14
   1141c:	017eceb3          	xor	t4,t4,s7
   11420:	01d888b3          	add	a7,a7,t4
   11424:	0119c9b3          	xor	s3,s3,a7
   11428:	00899b93          	slli	s7,s3,0x8
   1142c:	0189d993          	srli	s3,s3,0x18
   11430:	0179c9b3          	xor	s3,s3,s7
   11434:	01390933          	add	s2,s2,s3
   11438:	012eceb3          	xor	t4,t4,s2
   1143c:	007e9b93          	slli	s7,t4,0x7
   11440:	019ede93          	srli	t4,t4,0x19
   11444:	017eceb3          	xor	t4,t4,s7
   11448:	01e282b3          	add	t0,t0,t5
   1144c:	005a4a33          	xor	s4,s4,t0
   11450:	010a1b93          	slli	s7,s4,0x10
   11454:	010a5a13          	srli	s4,s4,0x10
   11458:	017a4a33          	xor	s4,s4,s7
   1145c:	014f8fb3          	add	t6,t6,s4
   11460:	01ff4f33          	xor	t5,t5,t6
   11464:	00cf1b93          	slli	s7,t5,0xc
   11468:	014f5f13          	srli	t5,t5,0x14
   1146c:	017f4f33          	xor	t5,t5,s7
   11470:	01e282b3          	add	t0,t0,t5
   11474:	005a4a33          	xor	s4,s4,t0
   11478:	008a1b93          	slli	s7,s4,0x8
   1147c:	018a5a13          	srli	s4,s4,0x18
   11480:	017a4a33          	xor	s4,s4,s7
   11484:	014f8fb3          	add	t6,t6,s4
   11488:	01ff4f33          	xor	t5,t5,t6
   1148c:	007f1b93          	slli	s7,t5,0x7
   11490:	019f5f13          	srli	t5,t5,0x19
   11494:	017f4f33          	xor	t5,t5,s7
   11498:	00730333          	add	t1,t1,t2
   1149c:	006acab3          	xor	s5,s5,t1
   114a0:	010a9b93          	slli	s7,s5,0x10
   114a4:	010ada93          	srli	s5,s5,0x10
   114a8:	017acab3          	xor	s5,s5,s7
   114ac:	01540433          	add	s0,s0,s5
   114b0:	0083c3b3          	xor	t2,t2,s0
   114b4:	00c39b93          	slli	s7,t2,0xc
   114b8:	0143d393          	srli	t2,t2,0x14
   114bc:	0173c3b3          	xor	t2,t2,s7
   114c0:	00730333          	add	t1,t1,t2
   114c4:	006acab3          	xor	s5,s5,t1
   114c8:	008a9b93          	slli	s7,s5,0x8
   114cc:	018ada93          	srli	s5,s5,0x18
   114d0:	017acab3          	xor	s5,s5,s7
   114d4:	01540433          	add	s0,s0,s5
   114d8:	0083c3b3          	xor	t2,t2,s0
   114dc:	00739b93          	slli	s7,t2,0x7
   114e0:	0193d393          	srli	t2,t2,0x19
   114e4:	0173c3b3          	xor	t2,t2,s7
   114e8:	00780833          	add	a6,a6,t2
   114ec:	0109c9b3          	xor	s3,s3,a6
   114f0:	01099b93          	slli	s7,s3,0x10
   114f4:	0109d993          	srli	s3,s3,0x10
   114f8:	0179c9b3          	xor	s3,s3,s7
   114fc:	013f8fb3          	add	t6,t6,s3
   11500:	01f3c3b3          	xor	t2,t2,t6
   11504:	00c39b93          	slli	s7,t2,0xc
   11508:	0143d393          	srli	t2,t2,0x14
   1150c:	0173c3b3          	xor	t2,t2,s7
   11510:	00780833          	add	a6,a6,t2
   11514:	0109c9b3          	xor	s3,s3,a6
   11518:	00899b93          	slli	s7,s3,0x8
   1151c:	0189d993          	srli	s3,s3,0x18
   11520:	0179c9b3          	xor	s3,s3,s7
   11524:	013f8fb3          	add	t6,t6,s3
   11528:	01f3c3b3          	xor	t2,t2,t6
   1152c:	00739b93          	slli	s7,t2,0x7
   11530:	0193d393          	srli	t2,t2,0x19
   11534:	0173c3b3          	xor	t2,t2,s7
   11538:	01c888b3          	add	a7,a7,t3
   1153c:	011a4a33          	xor	s4,s4,a7
   11540:	010a1b93          	slli	s7,s4,0x10
   11544:	010a5a13          	srli	s4,s4,0x10
   11548:	017a4a33          	xor	s4,s4,s7
   1154c:	01440433          	add	s0,s0,s4
   11550:	008e4e33          	xor	t3,t3,s0
   11554:	00ce1b93          	slli	s7,t3,0xc
   11558:	014e5e13          	srli	t3,t3,0x14
   1155c:	017e4e33          	xor	t3,t3,s7
   11560:	01c888b3          	add	a7,a7,t3
   11564:	011a4a33          	xor	s4,s4,a7
   11568:	008a1b93          	slli	s7,s4,0x8
   1156c:	018a5a13          	srli	s4,s4,0x18
   11570:	017a4a33          	xor	s4,s4,s7
   11574:	01440433          	add	s0,s0,s4
   11578:	008e4e33          	xor	t3,t3,s0
   1157c:	007e1b93          	slli	s7,t3,0x7
   11580:	019e5e13          	srli	t3,t3,0x19
   11584:	017e4e33          	xor	t3,t3,s7
   11588:	01d282b3          	add	t0,t0,t4
   1158c:	005acab3          	xor	s5,s5,t0
   11590:	010a9b93          	slli	s7,s5,0x10
   11594:	010ada93          	srli	s5,s5,0x10
   11598:	017acab3          	xor	s5,s5,s7
   1159c:	015484b3          	add	s1,s1,s5
   115a0:	009eceb3          	xor	t4,t4,s1
   115a4:	00ce9b93          	slli	s7,t4,0xc
   115a8:	014ede93          	srli	t4,t4,0x14
   115ac:	017eceb3          	xor	t4,t4,s7
   115b0:	01d282b3          	add	t0,t0,t4
   115b4:	005acab3          	xor	s5,s5,t0
   115b8:	008a9b93          	slli	s7,s5,0x8
   115bc:	018ada93          	srli	s5,s5,0x18
   115c0:	017acab3          	xor	s5,s5,s7
   115c4:	015484b3          	add	s1,s1,s5
   115c8:	009eceb3          	xor	t4,t4,s1
   115cc:	007e9b93          	slli	s7,t4,0x7
   115d0:	019ede93          	srli	t4,t4,0x19
   115d4:	017eceb3          	xor	t4,t4,s7
   115d8:	01e30333          	add	t1,t1,t5
   115dc:	006b4b33          	xor	s6,s6,t1
   115e0:	010b1b93          	slli	s7,s6,0x10
   115e4:	010b5b13          	srli	s6,s6,0x10
   115e8:	017b4b33          	xor	s6,s6,s7
   115ec:	01690933          	add	s2,s2,s6
   115f0:	012f4f33          	xor	t5,t5,s2
   115f4:	00cf1b93          	slli	s7,t5,0xc
   115f8:	014f5f13          	srli	t5,t5,0x14
   115fc:	017f4f33          	xor	t5,t5,s7
   11600:	01e30333          	add	t1,t1,t5
   11604:	006b4b33          	xor	s6,s6,t1
   11608:	008b1b93          	slli	s7,s6,0x8
   1160c:	018b5b13          	srli	s6,s6,0x18
   11610:	017b4b33          	xor	s6,s6,s7
   11614:	01690933          	add	s2,s2,s6
   11618:	012f4f33          	xor	t5,t5,s2
   1161c:	007f1b93          	slli	s7,t5,0x7
   11620:	019f5f13          	srli	t5,t5,0x19
   11624:	017f4f33          	xor	t5,t5,s7
   11628:	01c80833          	add	a6,a6,t3
   1162c:	010b4b33          	xor	s6,s6,a6
   11630:	010b1b93          	slli	s7,s6,0x10
   11634:	010b5b13          	srli	s6,s6,0x10
   11638:	017b4b33          	xor	s6,s6,s7
   1163c:	016484b3          	add	s1,s1,s6
   11640:	009e4e33          	xor	t3,t3,s1
   11644:	00ce1b93          	slli	s7,t3,0xc
   11648:	014e5e13          	srli	t3,t3,0x14
   1164c:	017e4e33          	xor	t3,t3,s7
   11650:	01c80833          	add	a6,a6,t3
   11654:	010b4b33          	xor	s6,s6,a6
   11658:	008b1b93          	slli	s7,s6,0x8
   1165c:	018b5b13          	srli	s6,s6,0x18
   11660:	017b4b33          	xor	s6,s6,s7
   11664:	016484b3          	add	s1,s1,s6
   11668:	009e4e33          	xor	t3,t3,s1
   1166c:	007e1b93          	slli	s7,t3,0x7
   11670:	019e5e13          	srli	t3,t3,0x19
   11674:	017e4e33          	xor	t3,t3,s7
   11678:	01d888b3          	add	a7,a7,t4
   1167c:	0119c9b3          	xor	s3,s3,a7
   11680:	01099b93          	slli	s7,s3,0x10
   11684:	0109d993          	srli	s3,s3,0x10
   11688:	0179c9b3          	xor	s3,s3,s7
   1168c:	01390933          	add	s2,s2,s3
   11690:	012eceb3          	xor	t4,t4,s2
   11694:	00ce9b93          	slli	s7,t4,0xc
   11698:	014ede93          	srli	t4,t4,0x14
   1169c:	017eceb3          	xor	t4,t4,s7
   116a0:	01d888b3          	add	a7,a7,t4
   116a4:	0119c9b3          	xor	s3,s3,a7
   116a8:	00899b93          	slli	s7,s3,0x8
   116ac:	0189d993          	srli	s3,s3,0x18
   116b0:	0179c9b3          	xor	s3,s3,s7
   116b4:	01390933          	add	s2,s2,s3
   116b8:	012eceb3          	xor	t4,t4,s2
   116bc:	007e9b93          	slli	s7,t4,0x7
   116c0:	019ede93          	srli	t4,t4,0x19
   116c4:	017eceb3          	xor	t4,t4,s7
   116c8:	01e282b3          	add	t0,t0,t5
   116cc:	005a4a33          	xor	s4,s4,t0
   116d0:	010a1b93          	slli	s7,s4,0x10
   116d4:	010a5a13          	srli	s4,s4,0x10
   116d8:	017a4a33          	xor	s4,s4,s7
   116dc:	014f8fb3          	add	t6,t6,s4
   116e0:	01ff4f33          	xor	t5,t5,t6
   116e4:	00cf1b93          	slli	s7,t5,0xc
   116e8:	014f5f13          	srli	t5,t5,0x14
   116ec:	017f4f33          	xor	t5,t5,s7
   116f0:	01e282b3          	add	t0,t0,t5
   116f4:	005a4a33          	xor	s4,s4,t0
   116f8:	008a1b93          	slli	s7,s4,0x8
   116fc:	018a5a13          	srli	s4,s4,0x18
   11700:	017a4a33          	xor	s4,s4,s7
   11704:	014f8fb3          	add	t6,t6,s4
   11708:	01ff4f33          	xor	t5,t5,t6
   1170c:	007f1b93          	slli	s7,t5,0x7
   11710:	019f5f13          	srli	t5,t5,0x19
   11714:	017f4f33          	xor	t5,t5,s7
   11718:	00730333          	add	t1,t1,t2
   1171c:	006acab3          	xor	s5,s5,t1
   11720:	010a9b93          	slli	s7,s5,0x10
   11724:	010ada93          	srli	s5,s5,0x10
   11728:	017acab3          	xor	s5,s5,s7
   1172c:	01540433          	add	s0,s0,s5
   11730:	0083c3b3          	xor	t2,t2,s0
   11734:	00c39b93          	slli	s7,t2,0xc
   11738:	0143d393          	srli	t2,t2,0x14
   1173c:	0173c3b3          	xor	t2,t2,s7
   11740:	00730333          	add	t1,t1,t2
   11744:	006acab3          	xor	s5,s5,t1
   11748:	008a9b93          	slli	s7,s5,0x8
   1174c:	018ada93          	srli	s5,s5,0x18
   11750:	017acab3          	xor	s5,s5,s7
   11754:	01540433          	add	s0,s0,s5
   11758:	0083c3b3          	xor	t2,t2,s0
   1175c:	00739b93          	slli	s7,t2,0x7
   11760:	0193d393          	srli	t2,t2,0x19
   11764:	0173c3b3          	xor	t2,t2,s7
   11768:	00780833          	add	a6,a6,t2
   1176c:	0109c9b3          	xor	s3,s3,a6
   11770:	01099b93          	slli	s7,s3,0x10
   11774:	0109d993          	srli	s3,s3,0x10
   11778:	0179c9b3          	xor	s3,s3,s7
   1177c:	013f8fb3          	add	t6,t6,s3
   11780:	01f3c3b3          	xor	t2,t2,t6
   11784:	00c39b93          	slli	s7,t2,0xc
   11788:	0143d393          	srli	t2,t2,0x14
   1178c:	0173c3b3          	xor	t2,t2,s7
   11790:	00780833          	add	a6,a6,t2
   11794:	0109c9b3          	xor	s3,s3,a6
   11798:	00899b93          	slli	s7,s3,0x8
   1179c:	0189d993          	srli	s3,s3,0x18
   117a0:	0179c9b3          	xor	s3,s3,s7
   117a4:	013f8fb3          	add	t6,t6,s3
   117a8:	01f3c3b3          	xor	t2,t2,t6
   117ac:	00739b93          	slli	s7,t2,0x7
   117b0:	0193d393          	srli	t2,t2,0x19
   117b4:	0173c3b3          	xor	t2,t2,s7
   117b8:	01c888b3          	add	a7,a7,t3
   117bc:	011a4a33          	xor	s4,s4,a7
   117c0:	010a1b93          	slli	s7,s4,0x10
   117c4:	010a5a13          	srli	s4,s4,0x10
   117c8:	017a4a33          	xor	s4,s4,s7
   117cc:	01440433          	add	s0,s0,s4
   117d0:	008e4e33          	xor	t3,t3,s0
   117d4:	00ce1b93          	slli	s7,t3,0xc
   117d8:	014e5e13          	srli	t3,t3,0x14
   117dc:	017e4e33          	xor	t3,t3,s7
   117e0:	01c888b3          	add	a7,a7,t3
   117e4:	011a4a33          	xor	s4,s4,a7
   117e8:	008a1b93          	slli	s7,s4,0x8
   117ec:	018a5a13          	srli	s4,s4,0x18
   117f0:	017a4a33          	xor	s4,s4,s7
   117f4:	01440433          	add	s0,s0,s4
   117f8:	008e4e33          	xor	t3,t3,s0
   117fc:	007e1b93          	slli	s7,t3,0x7
   11800:	019e5e13          	srli	t3,t3,0x19
   11804:	017e4e33          	xor	t3,t3,s7
   11808:	01d282b3          	add	t0,t0,t4
   1180c:	005acab3          	xor	s5,s5,t0
   11810:	010a9b93          	slli	s7,s5,0x10
   11814:	010ada93          	srli	s5,s5,0x10
   11818:	017acab3          	xor	s5,s5,s7
   1181c:	015484b3          	add	s1,s1,s5
   11820:	009eceb3          	xor	t4,t4,s1
   11824:	00ce9b93          	slli	s7,t4,0xc
   11828:	014ede93          	srli	t4,t4,0x14
   1182c:	017eceb3          	xor	t4,t4,s7
   11830:	01d282b3          	add	t0,t0,t4
   11834:	005acab3          	xor	s5,s5,t0
   11838:	008a9b93          	slli	s7,s5,0x8
   1183c:	018ada93          	srli	s5,s5,0x18
   11840:	017acab3          	xor	s5,s5,s7
   11844:	015484b3          	add	s1,s1,s5
   11848:	009eceb3          	xor	t4,t4,s1
   1184c:	007e9b93          	slli	s7,t4,0x7
   11850:	019ede93          	srli	t4,t4,0x19
   11854:	017eceb3          	xor	t4,t4,s7
   11858:	01e30333          	add	t1,t1,t5
   1185c:	006b4b33          	xor	s6,s6,t1
   11860:	010b1b93          	slli	s7,s6,0x10
   11864:	010b5b13          	srli	s6,s6,0x10
   11868:	017b4b33          	xor	s6,s6,s7
   1186c:	01690933          	add	s2,s2,s6
   11870:	012f4f33          	xor	t5,t5,s2
   11874:	00cf1b93          	slli	s7,t5,0xc
   11878:	014f5f13          	srli	t5,t5,0x14
   1187c:	017f4f33          	xor	t5,t5,s7
   11880:	01e30333          	add	t1,t1,t5
   11884:	006b4b33          	xor	s6,s6,t1
   11888:	008b1b93          	slli	s7,s6,0x8
   1188c:	018b5b13          	srli	s6,s6,0x18
   11890:	017b4b33          	xor	s6,s6,s7
   11894:	01690933          	add	s2,s2,s6
   11898:	012f4f33          	xor	t5,t5,s2
   1189c:	007f1b93          	slli	s7,t5,0x7
   118a0:	019f5f13          	srli	t5,t5,0x19
   118a4:	017f4f33          	xor	t5,t5,s7
   118a8:	01c80833          	add	a6,a6,t3
   118ac:	010b4b33          	xor	s6,s6,a6
   118b0:	010b1b93          	slli	s7,s6,0x10
   118b4:	010b5b13          	srli	s6,s6,0x10
   118b8:	017b4b33          	xor	s6,s6,s7
   118bc:	016484b3          	add	s1,s1,s6
   118c0:	009e4e33          	xor	t3,t3,s1
   118c4:	00ce1b93          	slli	s7,t3,0xc
   118c8:	014e5e13          	srli	t3,t3,0x14
   118cc:	017e4e33          	xor	t3,t3,s7
   118d0:	01c80833          	add	a6,a6,t3
   118d4:	010b4b33          	xor	s6,s6,a6
   118d8:	008b1b93          	slli	s7,s6,0x8
   118dc:	018b5b13          	srli	s6,s6,0x18
   118e0:	017b4b33          	xor	s6,s6,s7
   118e4:	016484b3          	add	s1,s1,s6
   118e8:	009e4e33          	xor	t3,t3,s1
   118ec:	007e1b93          	slli	s7,t3,0x7
   118f0:	019e5e13          	srli	t3,t3,0x19
   118f4:	017e4e33          	xor	t3,t3,s7
   118f8:	01d888b3          	add	a7,a7,t4
   118fc:	0119c9b3          	xor	s3,s3,a7
   11900:	01099b93          	slli	s7,s3,0x10
   11904:	0109d993          	srli	s3,s3,0x10
   11908:	0179c9b3          	xor	s3,s3,s7
   1190c:	01390933          	add	s2,s2,s3
   11910:	012eceb3          	xor	t4,t4,s2
   11914:	00ce9b93          	slli	s7,t4,0xc
   11918:	014ede93          	srli	t4,t4,0x14
   1191c:	017eceb3          	xor	t4,t4,s7
   11920:	01d888b3          	add	a7,a7,t4
   11924:	0119c9b3          	xor	s3,s3,a7
   11928:	00899b93          	slli	s7,s3,0x8
   1192c:	0189d993          	srli	s3,s3,0x18
   11930:	0179c9b3          	xor	s3,s3,s7
   11934:	01390933          	add	s2,s2,s3
   11938:	012eceb3          	xor	t4,t4,s2
   1193c:	007e9b93          	slli	s7,t4,0x7
   11940:	019ede93          	srli	t4,t4,0x19
   11944:	017eceb3          	xor	t4,t4,s7
   11948:	01e282b3          	add	t0,t0,t5
   1194c:	005a4a33          	xor	s4,s4,t0
   11950:	010a1b93          	slli	s7,s4,0x10
   11954:	010a5a13          	srli	s4,s4,0x10
   11958:	017a4a33          	xor	s4,s4,s7
   1195c:	014f8fb3          	add	t6,t6,s4
   11960:	01ff4f33          	xor	t5,t5,t6
   11964:	00cf1b93          	slli	s7,t5,0xc
   11968:	014f5f13          	srli	t5,t5,0x14
   1196c:	017f4f33          	xor	t5,t5,s7
   11970:	01e282b3          	add	t0,t0,t5
   11974:	005a4a33          	xor	s4,s4,t0
   11978:	008a1b93          	slli	s7,s4,0x8
   1197c:	018a5a13          	srli	s4,s4,0x18
   11980:	017a4a33          	xor	s4,s4,s7
   11984:	014f8fb3          	add	t6,t6,s4
   11988:	01ff4f33          	xor	t5,t5,t6
   1198c:	007f1b93          	slli	s7,t5,0x7
   11990:	019f5f13          	srli	t5,t5,0x19
   11994:	017f4f33          	xor	t5,t5,s7
   11998:	00730333          	add	t1,t1,t2
   1199c:	006acab3          	xor	s5,s5,t1
   119a0:	010a9b93          	slli	s7,s5,0x10
   119a4:	010ada93          	srli	s5,s5,0x10
   119a8:	017acab3          	xor	s5,s5,s7
   119ac:	01540433          	add	s0,s0,s5
   119b0:	0083c3b3          	xor	t2,t2,s0
   119b4:	00c39b93          	slli	s7,t2,0xc
   119b8:	0143d393          	srli	t2,t2,0x14
   119bc:	0173c3b3          	xor	t2,t2,s7
   119c0:	00730333          	add	t1,t1,t2
   119c4:	006acab3          	xor	s5,s5,t1
   119c8:	008a9b93          	slli	s7,s5,0x8
   119cc:	018ada93          	srli	s5,s5,0x18
   119d0:	017acab3          	xor	s5,s5,s7
   119d4:	01540433          	add	s0,s0,s5
   119d8:	0083c3b3          	xor	t2,t2,s0
   119dc:	00739b93          	slli	s7,t2,0x7
   119e0:	0193d393          	srli	t2,t2,0x19
   119e4:	0173c3b3          	xor	t2,t2,s7
   119e8:	000c2b83          	lw	s7,0(s8)
   119ec:	004c2c83          	lw	s9,4(s8)
   119f0:	01780833          	add	a6,a6,s7
   119f4:	019888b3          	add	a7,a7,s9
   119f8:	008c2b83          	lw	s7,8(s8)
   119fc:	00cc2c83          	lw	s9,12(s8)
   11a00:	017282b3          	add	t0,t0,s7
   11a04:	01930333          	add	t1,t1,s9
   11a08:	0006ab83          	lw	s7,0(a3)
   11a0c:	0046ac83          	lw	s9,4(a3)
   11a10:	017383b3          	add	t2,t2,s7
   11a14:	019e0e33          	add	t3,t3,s9
   11a18:	0086ab83          	lw	s7,8(a3)
   11a1c:	00c6ac83          	lw	s9,12(a3)
   11a20:	017e8eb3          	add	t4,t4,s7
   11a24:	019f0f33          	add	t5,t5,s9
   11a28:	0106ab83          	lw	s7,16(a3)
   11a2c:	0146ac83          	lw	s9,20(a3)
   11a30:	017f8fb3          	add	t6,t6,s7
   11a34:	01940433          	add	s0,s0,s9
   11a38:	0186ab83          	lw	s7,24(a3)
   11a3c:	01c6ac83          	lw	s9,28(a3)
   11a40:	017484b3          	add	s1,s1,s7
   11a44:	01990933          	add	s2,s2,s9
   11a48:	00f989b3          	add	s3,s3,a5
   11a4c:	00072b83          	lw	s7,0(a4)
   11a50:	00472c83          	lw	s9,4(a4)
   11a54:	017a0a33          	add	s4,s4,s7
   11a58:	00872b83          	lw	s7,8(a4)
   11a5c:	019a8ab3          	add	s5,s5,s9
   11a60:	017b0b33          	add	s6,s6,s7
   11a64:	0005ab83          	lw	s7,0(a1)
   11a68:	0045ac03          	lw	s8,4(a1)
   11a6c:	01784833          	xor	a6,a6,s7
   11a70:	0188c8b3          	xor	a7,a7,s8
   11a74:	0085ab83          	lw	s7,8(a1)
   11a78:	00c5ac03          	lw	s8,12(a1)
   11a7c:	0172c2b3          	xor	t0,t0,s7
   11a80:	01834333          	xor	t1,t1,s8
   11a84:	0105ab83          	lw	s7,16(a1)
   11a88:	0145ac03          	lw	s8,20(a1)
   11a8c:	0173c3b3          	xor	t2,t2,s7
   11a90:	018e4e33          	xor	t3,t3,s8
   11a94:	0185ab83          	lw	s7,24(a1)
   11a98:	01c5ac03          	lw	s8,28(a1)
   11a9c:	017eceb3          	xor	t4,t4,s7
   11aa0:	018f4f33          	xor	t5,t5,s8
   11aa4:	0205ab83          	lw	s7,32(a1)
   11aa8:	0245ac03          	lw	s8,36(a1)
   11aac:	017fcfb3          	xor	t6,t6,s7
   11ab0:	01844433          	xor	s0,s0,s8
   11ab4:	0285ab83          	lw	s7,40(a1)
   11ab8:	02c5ac03          	lw	s8,44(a1)
   11abc:	0174c4b3          	xor	s1,s1,s7
   11ac0:	01894933          	xor	s2,s2,s8
   11ac4:	0305ab83          	lw	s7,48(a1)
   11ac8:	0345ac03          	lw	s8,52(a1)
   11acc:	0179c9b3          	xor	s3,s3,s7
   11ad0:	018a4a33          	xor	s4,s4,s8
   11ad4:	0385ab83          	lw	s7,56(a1)
   11ad8:	03c5ac03          	lw	s8,60(a1)
   11adc:	017acab3          	xor	s5,s5,s7
   11ae0:	018b4b33          	xor	s6,s6,s8
   11ae4:	00003c17          	auipc	s8,0x3
   11ae8:	e34c0c13          	addi	s8,s8,-460 # 14918 <chacha20constants>
   11aec:	01052023          	sw	a6,0(a0)
   11af0:	01152223          	sw	a7,4(a0)
   11af4:	00552423          	sw	t0,8(a0)
   11af8:	00652623          	sw	t1,12(a0)
   11afc:	00752823          	sw	t2,16(a0)
   11b00:	01c52a23          	sw	t3,20(a0)
   11b04:	01d52c23          	sw	t4,24(a0)
   11b08:	01e52e23          	sw	t5,28(a0)
   11b0c:	03f52023          	sw	t6,32(a0)
   11b10:	02852223          	sw	s0,36(a0)
   11b14:	02952423          	sw	s1,40(a0)
   11b18:	03252623          	sw	s2,44(a0)
   11b1c:	03352823          	sw	s3,48(a0)
   11b20:	03452a23          	sw	s4,52(a0)
   11b24:	03552c23          	sw	s5,56(a0)
   11b28:	03652e23          	sw	s6,60(a0)
   11b2c:	04050513          	addi	a0,a0,64
   11b30:	04058593          	addi	a1,a1,64
   11b34:	fc060613          	addi	a2,a2,-64
   11b38:	00178793          	addi	a5,a5,1
   11b3c:	d60fe06f          	j	1009c <chacha20+0x34>
   11b40:	00c04463          	bgtz	a2,11b48 <chacha20+0x1ae0>
   11b44:	5510106f          	j	13894 <chacha20+0x382c>
   11b48:	000c2803          	lw	a6,0(s8)
   11b4c:	004c2883          	lw	a7,4(s8)
   11b50:	008c2283          	lw	t0,8(s8)
   11b54:	00cc2303          	lw	t1,12(s8)
   11b58:	0006a383          	lw	t2,0(a3)
   11b5c:	0046ae03          	lw	t3,4(a3)
   11b60:	0086ae83          	lw	t4,8(a3)
   11b64:	00c6af03          	lw	t5,12(a3)
   11b68:	0106af83          	lw	t6,16(a3)
   11b6c:	0146a403          	lw	s0,20(a3)
   11b70:	0186a483          	lw	s1,24(a3)
   11b74:	01c6a903          	lw	s2,28(a3)
   11b78:	00078993          	mv	s3,a5
   11b7c:	00072a03          	lw	s4,0(a4)
   11b80:	00472a83          	lw	s5,4(a4)
   11b84:	00872b03          	lw	s6,8(a4)
   11b88:	00780833          	add	a6,a6,t2
   11b8c:	0109c9b3          	xor	s3,s3,a6
   11b90:	01099b93          	slli	s7,s3,0x10
   11b94:	0109d993          	srli	s3,s3,0x10
   11b98:	0179c9b3          	xor	s3,s3,s7
   11b9c:	013f8fb3          	add	t6,t6,s3
   11ba0:	01f3c3b3          	xor	t2,t2,t6
   11ba4:	00c39b93          	slli	s7,t2,0xc
   11ba8:	0143d393          	srli	t2,t2,0x14
   11bac:	0173c3b3          	xor	t2,t2,s7
   11bb0:	00780833          	add	a6,a6,t2
   11bb4:	0109c9b3          	xor	s3,s3,a6
   11bb8:	00899b93          	slli	s7,s3,0x8
   11bbc:	0189d993          	srli	s3,s3,0x18
   11bc0:	0179c9b3          	xor	s3,s3,s7
   11bc4:	013f8fb3          	add	t6,t6,s3
   11bc8:	01f3c3b3          	xor	t2,t2,t6
   11bcc:	00739b93          	slli	s7,t2,0x7
   11bd0:	0193d393          	srli	t2,t2,0x19
   11bd4:	0173c3b3          	xor	t2,t2,s7
   11bd8:	01c888b3          	add	a7,a7,t3
   11bdc:	011a4a33          	xor	s4,s4,a7
   11be0:	010a1b93          	slli	s7,s4,0x10
   11be4:	010a5a13          	srli	s4,s4,0x10
   11be8:	017a4a33          	xor	s4,s4,s7
   11bec:	01440433          	add	s0,s0,s4
   11bf0:	008e4e33          	xor	t3,t3,s0
   11bf4:	00ce1b93          	slli	s7,t3,0xc
   11bf8:	014e5e13          	srli	t3,t3,0x14
   11bfc:	017e4e33          	xor	t3,t3,s7
   11c00:	01c888b3          	add	a7,a7,t3
   11c04:	011a4a33          	xor	s4,s4,a7
   11c08:	008a1b93          	slli	s7,s4,0x8
   11c0c:	018a5a13          	srli	s4,s4,0x18
   11c10:	017a4a33          	xor	s4,s4,s7
   11c14:	01440433          	add	s0,s0,s4
   11c18:	008e4e33          	xor	t3,t3,s0
   11c1c:	007e1b93          	slli	s7,t3,0x7
   11c20:	019e5e13          	srli	t3,t3,0x19
   11c24:	017e4e33          	xor	t3,t3,s7
   11c28:	01d282b3          	add	t0,t0,t4
   11c2c:	005acab3          	xor	s5,s5,t0
   11c30:	010a9b93          	slli	s7,s5,0x10
   11c34:	010ada93          	srli	s5,s5,0x10
   11c38:	017acab3          	xor	s5,s5,s7
   11c3c:	015484b3          	add	s1,s1,s5
   11c40:	009eceb3          	xor	t4,t4,s1
   11c44:	00ce9b93          	slli	s7,t4,0xc
   11c48:	014ede93          	srli	t4,t4,0x14
   11c4c:	017eceb3          	xor	t4,t4,s7
   11c50:	01d282b3          	add	t0,t0,t4
   11c54:	005acab3          	xor	s5,s5,t0
   11c58:	008a9b93          	slli	s7,s5,0x8
   11c5c:	018ada93          	srli	s5,s5,0x18
   11c60:	017acab3          	xor	s5,s5,s7
   11c64:	015484b3          	add	s1,s1,s5
   11c68:	009eceb3          	xor	t4,t4,s1
   11c6c:	007e9b93          	slli	s7,t4,0x7
   11c70:	019ede93          	srli	t4,t4,0x19
   11c74:	017eceb3          	xor	t4,t4,s7
   11c78:	01e30333          	add	t1,t1,t5
   11c7c:	006b4b33          	xor	s6,s6,t1
   11c80:	010b1b93          	slli	s7,s6,0x10
   11c84:	010b5b13          	srli	s6,s6,0x10
   11c88:	017b4b33          	xor	s6,s6,s7
   11c8c:	01690933          	add	s2,s2,s6
   11c90:	012f4f33          	xor	t5,t5,s2
   11c94:	00cf1b93          	slli	s7,t5,0xc
   11c98:	014f5f13          	srli	t5,t5,0x14
   11c9c:	017f4f33          	xor	t5,t5,s7
   11ca0:	01e30333          	add	t1,t1,t5
   11ca4:	006b4b33          	xor	s6,s6,t1
   11ca8:	008b1b93          	slli	s7,s6,0x8
   11cac:	018b5b13          	srli	s6,s6,0x18
   11cb0:	017b4b33          	xor	s6,s6,s7
   11cb4:	01690933          	add	s2,s2,s6
   11cb8:	012f4f33          	xor	t5,t5,s2
   11cbc:	007f1b93          	slli	s7,t5,0x7
   11cc0:	019f5f13          	srli	t5,t5,0x19
   11cc4:	017f4f33          	xor	t5,t5,s7
   11cc8:	01c80833          	add	a6,a6,t3
   11ccc:	010b4b33          	xor	s6,s6,a6
   11cd0:	010b1b93          	slli	s7,s6,0x10
   11cd4:	010b5b13          	srli	s6,s6,0x10
   11cd8:	017b4b33          	xor	s6,s6,s7
   11cdc:	016484b3          	add	s1,s1,s6
   11ce0:	009e4e33          	xor	t3,t3,s1
   11ce4:	00ce1b93          	slli	s7,t3,0xc
   11ce8:	014e5e13          	srli	t3,t3,0x14
   11cec:	017e4e33          	xor	t3,t3,s7
   11cf0:	01c80833          	add	a6,a6,t3
   11cf4:	010b4b33          	xor	s6,s6,a6
   11cf8:	008b1b93          	slli	s7,s6,0x8
   11cfc:	018b5b13          	srli	s6,s6,0x18
   11d00:	017b4b33          	xor	s6,s6,s7
   11d04:	016484b3          	add	s1,s1,s6
   11d08:	009e4e33          	xor	t3,t3,s1
   11d0c:	007e1b93          	slli	s7,t3,0x7
   11d10:	019e5e13          	srli	t3,t3,0x19
   11d14:	017e4e33          	xor	t3,t3,s7
   11d18:	01d888b3          	add	a7,a7,t4
   11d1c:	0119c9b3          	xor	s3,s3,a7
   11d20:	01099b93          	slli	s7,s3,0x10
   11d24:	0109d993          	srli	s3,s3,0x10
   11d28:	0179c9b3          	xor	s3,s3,s7
   11d2c:	01390933          	add	s2,s2,s3
   11d30:	012eceb3          	xor	t4,t4,s2
   11d34:	00ce9b93          	slli	s7,t4,0xc
   11d38:	014ede93          	srli	t4,t4,0x14
   11d3c:	017eceb3          	xor	t4,t4,s7
   11d40:	01d888b3          	add	a7,a7,t4
   11d44:	0119c9b3          	xor	s3,s3,a7
   11d48:	00899b93          	slli	s7,s3,0x8
   11d4c:	0189d993          	srli	s3,s3,0x18
   11d50:	0179c9b3          	xor	s3,s3,s7
   11d54:	01390933          	add	s2,s2,s3
   11d58:	012eceb3          	xor	t4,t4,s2
   11d5c:	007e9b93          	slli	s7,t4,0x7
   11d60:	019ede93          	srli	t4,t4,0x19
   11d64:	017eceb3          	xor	t4,t4,s7
   11d68:	01e282b3          	add	t0,t0,t5
   11d6c:	005a4a33          	xor	s4,s4,t0
   11d70:	010a1b93          	slli	s7,s4,0x10
   11d74:	010a5a13          	srli	s4,s4,0x10
   11d78:	017a4a33          	xor	s4,s4,s7
   11d7c:	014f8fb3          	add	t6,t6,s4
   11d80:	01ff4f33          	xor	t5,t5,t6
   11d84:	00cf1b93          	slli	s7,t5,0xc
   11d88:	014f5f13          	srli	t5,t5,0x14
   11d8c:	017f4f33          	xor	t5,t5,s7
   11d90:	01e282b3          	add	t0,t0,t5
   11d94:	005a4a33          	xor	s4,s4,t0
   11d98:	008a1b93          	slli	s7,s4,0x8
   11d9c:	018a5a13          	srli	s4,s4,0x18
   11da0:	017a4a33          	xor	s4,s4,s7
   11da4:	014f8fb3          	add	t6,t6,s4
   11da8:	01ff4f33          	xor	t5,t5,t6
   11dac:	007f1b93          	slli	s7,t5,0x7
   11db0:	019f5f13          	srli	t5,t5,0x19
   11db4:	017f4f33          	xor	t5,t5,s7
   11db8:	00730333          	add	t1,t1,t2
   11dbc:	006acab3          	xor	s5,s5,t1
   11dc0:	010a9b93          	slli	s7,s5,0x10
   11dc4:	010ada93          	srli	s5,s5,0x10
   11dc8:	017acab3          	xor	s5,s5,s7
   11dcc:	01540433          	add	s0,s0,s5
   11dd0:	0083c3b3          	xor	t2,t2,s0
   11dd4:	00c39b93          	slli	s7,t2,0xc
   11dd8:	0143d393          	srli	t2,t2,0x14
   11ddc:	0173c3b3          	xor	t2,t2,s7
   11de0:	00730333          	add	t1,t1,t2
   11de4:	006acab3          	xor	s5,s5,t1
   11de8:	008a9b93          	slli	s7,s5,0x8
   11dec:	018ada93          	srli	s5,s5,0x18
   11df0:	017acab3          	xor	s5,s5,s7
   11df4:	01540433          	add	s0,s0,s5
   11df8:	0083c3b3          	xor	t2,t2,s0
   11dfc:	00739b93          	slli	s7,t2,0x7
   11e00:	0193d393          	srli	t2,t2,0x19
   11e04:	0173c3b3          	xor	t2,t2,s7
   11e08:	00780833          	add	a6,a6,t2
   11e0c:	0109c9b3          	xor	s3,s3,a6
   11e10:	01099b93          	slli	s7,s3,0x10
   11e14:	0109d993          	srli	s3,s3,0x10
   11e18:	0179c9b3          	xor	s3,s3,s7
   11e1c:	013f8fb3          	add	t6,t6,s3
   11e20:	01f3c3b3          	xor	t2,t2,t6
   11e24:	00c39b93          	slli	s7,t2,0xc
   11e28:	0143d393          	srli	t2,t2,0x14
   11e2c:	0173c3b3          	xor	t2,t2,s7
   11e30:	00780833          	add	a6,a6,t2
   11e34:	0109c9b3          	xor	s3,s3,a6
   11e38:	00899b93          	slli	s7,s3,0x8
   11e3c:	0189d993          	srli	s3,s3,0x18
   11e40:	0179c9b3          	xor	s3,s3,s7
   11e44:	013f8fb3          	add	t6,t6,s3
   11e48:	01f3c3b3          	xor	t2,t2,t6
   11e4c:	00739b93          	slli	s7,t2,0x7
   11e50:	0193d393          	srli	t2,t2,0x19
   11e54:	0173c3b3          	xor	t2,t2,s7
   11e58:	01c888b3          	add	a7,a7,t3
   11e5c:	011a4a33          	xor	s4,s4,a7
   11e60:	010a1b93          	slli	s7,s4,0x10
   11e64:	010a5a13          	srli	s4,s4,0x10
   11e68:	017a4a33          	xor	s4,s4,s7
   11e6c:	01440433          	add	s0,s0,s4
   11e70:	008e4e33          	xor	t3,t3,s0
   11e74:	00ce1b93          	slli	s7,t3,0xc
   11e78:	014e5e13          	srli	t3,t3,0x14
   11e7c:	017e4e33          	xor	t3,t3,s7
   11e80:	01c888b3          	add	a7,a7,t3
   11e84:	011a4a33          	xor	s4,s4,a7
   11e88:	008a1b93          	slli	s7,s4,0x8
   11e8c:	018a5a13          	srli	s4,s4,0x18
   11e90:	017a4a33          	xor	s4,s4,s7
   11e94:	01440433          	add	s0,s0,s4
   11e98:	008e4e33          	xor	t3,t3,s0
   11e9c:	007e1b93          	slli	s7,t3,0x7
   11ea0:	019e5e13          	srli	t3,t3,0x19
   11ea4:	017e4e33          	xor	t3,t3,s7
   11ea8:	01d282b3          	add	t0,t0,t4
   11eac:	005acab3          	xor	s5,s5,t0
   11eb0:	010a9b93          	slli	s7,s5,0x10
   11eb4:	010ada93          	srli	s5,s5,0x10
   11eb8:	017acab3          	xor	s5,s5,s7
   11ebc:	015484b3          	add	s1,s1,s5
   11ec0:	009eceb3          	xor	t4,t4,s1
   11ec4:	00ce9b93          	slli	s7,t4,0xc
   11ec8:	014ede93          	srli	t4,t4,0x14
   11ecc:	017eceb3          	xor	t4,t4,s7
   11ed0:	01d282b3          	add	t0,t0,t4
   11ed4:	005acab3          	xor	s5,s5,t0
   11ed8:	008a9b93          	slli	s7,s5,0x8
   11edc:	018ada93          	srli	s5,s5,0x18
   11ee0:	017acab3          	xor	s5,s5,s7
   11ee4:	015484b3          	add	s1,s1,s5
   11ee8:	009eceb3          	xor	t4,t4,s1
   11eec:	007e9b93          	slli	s7,t4,0x7
   11ef0:	019ede93          	srli	t4,t4,0x19
   11ef4:	017eceb3          	xor	t4,t4,s7
   11ef8:	01e30333          	add	t1,t1,t5
   11efc:	006b4b33          	xor	s6,s6,t1
   11f00:	010b1b93          	slli	s7,s6,0x10
   11f04:	010b5b13          	srli	s6,s6,0x10
   11f08:	017b4b33          	xor	s6,s6,s7
   11f0c:	01690933          	add	s2,s2,s6
   11f10:	012f4f33          	xor	t5,t5,s2
   11f14:	00cf1b93          	slli	s7,t5,0xc
   11f18:	014f5f13          	srli	t5,t5,0x14
   11f1c:	017f4f33          	xor	t5,t5,s7
   11f20:	01e30333          	add	t1,t1,t5
   11f24:	006b4b33          	xor	s6,s6,t1
   11f28:	008b1b93          	slli	s7,s6,0x8
   11f2c:	018b5b13          	srli	s6,s6,0x18
   11f30:	017b4b33          	xor	s6,s6,s7
   11f34:	01690933          	add	s2,s2,s6
   11f38:	012f4f33          	xor	t5,t5,s2
   11f3c:	007f1b93          	slli	s7,t5,0x7
   11f40:	019f5f13          	srli	t5,t5,0x19
   11f44:	017f4f33          	xor	t5,t5,s7
   11f48:	01c80833          	add	a6,a6,t3
   11f4c:	010b4b33          	xor	s6,s6,a6
   11f50:	010b1b93          	slli	s7,s6,0x10
   11f54:	010b5b13          	srli	s6,s6,0x10
   11f58:	017b4b33          	xor	s6,s6,s7
   11f5c:	016484b3          	add	s1,s1,s6
   11f60:	009e4e33          	xor	t3,t3,s1
   11f64:	00ce1b93          	slli	s7,t3,0xc
   11f68:	014e5e13          	srli	t3,t3,0x14
   11f6c:	017e4e33          	xor	t3,t3,s7
   11f70:	01c80833          	add	a6,a6,t3
   11f74:	010b4b33          	xor	s6,s6,a6
   11f78:	008b1b93          	slli	s7,s6,0x8
   11f7c:	018b5b13          	srli	s6,s6,0x18
   11f80:	017b4b33          	xor	s6,s6,s7
   11f84:	016484b3          	add	s1,s1,s6
   11f88:	009e4e33          	xor	t3,t3,s1
   11f8c:	007e1b93          	slli	s7,t3,0x7
   11f90:	019e5e13          	srli	t3,t3,0x19
   11f94:	017e4e33          	xor	t3,t3,s7
   11f98:	01d888b3          	add	a7,a7,t4
   11f9c:	0119c9b3          	xor	s3,s3,a7
   11fa0:	01099b93          	slli	s7,s3,0x10
   11fa4:	0109d993          	srli	s3,s3,0x10
   11fa8:	0179c9b3          	xor	s3,s3,s7
   11fac:	01390933          	add	s2,s2,s3
   11fb0:	012eceb3          	xor	t4,t4,s2
   11fb4:	00ce9b93          	slli	s7,t4,0xc
   11fb8:	014ede93          	srli	t4,t4,0x14
   11fbc:	017eceb3          	xor	t4,t4,s7
   11fc0:	01d888b3          	add	a7,a7,t4
   11fc4:	0119c9b3          	xor	s3,s3,a7
   11fc8:	00899b93          	slli	s7,s3,0x8
   11fcc:	0189d993          	srli	s3,s3,0x18
   11fd0:	0179c9b3          	xor	s3,s3,s7
   11fd4:	01390933          	add	s2,s2,s3
   11fd8:	012eceb3          	xor	t4,t4,s2
   11fdc:	007e9b93          	slli	s7,t4,0x7
   11fe0:	019ede93          	srli	t4,t4,0x19
   11fe4:	017eceb3          	xor	t4,t4,s7
   11fe8:	01e282b3          	add	t0,t0,t5
   11fec:	005a4a33          	xor	s4,s4,t0
   11ff0:	010a1b93          	slli	s7,s4,0x10
   11ff4:	010a5a13          	srli	s4,s4,0x10
   11ff8:	017a4a33          	xor	s4,s4,s7
   11ffc:	014f8fb3          	add	t6,t6,s4
   12000:	01ff4f33          	xor	t5,t5,t6
   12004:	00cf1b93          	slli	s7,t5,0xc
   12008:	014f5f13          	srli	t5,t5,0x14
   1200c:	017f4f33          	xor	t5,t5,s7
   12010:	01e282b3          	add	t0,t0,t5
   12014:	005a4a33          	xor	s4,s4,t0
   12018:	008a1b93          	slli	s7,s4,0x8
   1201c:	018a5a13          	srli	s4,s4,0x18
   12020:	017a4a33          	xor	s4,s4,s7
   12024:	014f8fb3          	add	t6,t6,s4
   12028:	01ff4f33          	xor	t5,t5,t6
   1202c:	007f1b93          	slli	s7,t5,0x7
   12030:	019f5f13          	srli	t5,t5,0x19
   12034:	017f4f33          	xor	t5,t5,s7
   12038:	00730333          	add	t1,t1,t2
   1203c:	006acab3          	xor	s5,s5,t1
   12040:	010a9b93          	slli	s7,s5,0x10
   12044:	010ada93          	srli	s5,s5,0x10
   12048:	017acab3          	xor	s5,s5,s7
   1204c:	01540433          	add	s0,s0,s5
   12050:	0083c3b3          	xor	t2,t2,s0
   12054:	00c39b93          	slli	s7,t2,0xc
   12058:	0143d393          	srli	t2,t2,0x14
   1205c:	0173c3b3          	xor	t2,t2,s7
   12060:	00730333          	add	t1,t1,t2
   12064:	006acab3          	xor	s5,s5,t1
   12068:	008a9b93          	slli	s7,s5,0x8
   1206c:	018ada93          	srli	s5,s5,0x18
   12070:	017acab3          	xor	s5,s5,s7
   12074:	01540433          	add	s0,s0,s5
   12078:	0083c3b3          	xor	t2,t2,s0
   1207c:	00739b93          	slli	s7,t2,0x7
   12080:	0193d393          	srli	t2,t2,0x19
   12084:	0173c3b3          	xor	t2,t2,s7
   12088:	00780833          	add	a6,a6,t2
   1208c:	0109c9b3          	xor	s3,s3,a6
   12090:	01099b93          	slli	s7,s3,0x10
   12094:	0109d993          	srli	s3,s3,0x10
   12098:	0179c9b3          	xor	s3,s3,s7
   1209c:	013f8fb3          	add	t6,t6,s3
   120a0:	01f3c3b3          	xor	t2,t2,t6
   120a4:	00c39b93          	slli	s7,t2,0xc
   120a8:	0143d393          	srli	t2,t2,0x14
   120ac:	0173c3b3          	xor	t2,t2,s7
   120b0:	00780833          	add	a6,a6,t2
   120b4:	0109c9b3          	xor	s3,s3,a6
   120b8:	00899b93          	slli	s7,s3,0x8
   120bc:	0189d993          	srli	s3,s3,0x18
   120c0:	0179c9b3          	xor	s3,s3,s7
   120c4:	013f8fb3          	add	t6,t6,s3
   120c8:	01f3c3b3          	xor	t2,t2,t6
   120cc:	00739b93          	slli	s7,t2,0x7
   120d0:	0193d393          	srli	t2,t2,0x19
   120d4:	0173c3b3          	xor	t2,t2,s7
   120d8:	01c888b3          	add	a7,a7,t3
   120dc:	011a4a33          	xor	s4,s4,a7
   120e0:	010a1b93          	slli	s7,s4,0x10
   120e4:	010a5a13          	srli	s4,s4,0x10
   120e8:	017a4a33          	xor	s4,s4,s7
   120ec:	01440433          	add	s0,s0,s4
   120f0:	008e4e33          	xor	t3,t3,s0
   120f4:	00ce1b93          	slli	s7,t3,0xc
   120f8:	014e5e13          	srli	t3,t3,0x14
   120fc:	017e4e33          	xor	t3,t3,s7
   12100:	01c888b3          	add	a7,a7,t3
   12104:	011a4a33          	xor	s4,s4,a7
   12108:	008a1b93          	slli	s7,s4,0x8
   1210c:	018a5a13          	srli	s4,s4,0x18
   12110:	017a4a33          	xor	s4,s4,s7
   12114:	01440433          	add	s0,s0,s4
   12118:	008e4e33          	xor	t3,t3,s0
   1211c:	007e1b93          	slli	s7,t3,0x7
   12120:	019e5e13          	srli	t3,t3,0x19
   12124:	017e4e33          	xor	t3,t3,s7
   12128:	01d282b3          	add	t0,t0,t4
   1212c:	005acab3          	xor	s5,s5,t0
   12130:	010a9b93          	slli	s7,s5,0x10
   12134:	010ada93          	srli	s5,s5,0x10
   12138:	017acab3          	xor	s5,s5,s7
   1213c:	015484b3          	add	s1,s1,s5
   12140:	009eceb3          	xor	t4,t4,s1
   12144:	00ce9b93          	slli	s7,t4,0xc
   12148:	014ede93          	srli	t4,t4,0x14
   1214c:	017eceb3          	xor	t4,t4,s7
   12150:	01d282b3          	add	t0,t0,t4
   12154:	005acab3          	xor	s5,s5,t0
   12158:	008a9b93          	slli	s7,s5,0x8
   1215c:	018ada93          	srli	s5,s5,0x18
   12160:	017acab3          	xor	s5,s5,s7
   12164:	015484b3          	add	s1,s1,s5
   12168:	009eceb3          	xor	t4,t4,s1
   1216c:	007e9b93          	slli	s7,t4,0x7
   12170:	019ede93          	srli	t4,t4,0x19
   12174:	017eceb3          	xor	t4,t4,s7
   12178:	01e30333          	add	t1,t1,t5
   1217c:	006b4b33          	xor	s6,s6,t1
   12180:	010b1b93          	slli	s7,s6,0x10
   12184:	010b5b13          	srli	s6,s6,0x10
   12188:	017b4b33          	xor	s6,s6,s7
   1218c:	01690933          	add	s2,s2,s6
   12190:	012f4f33          	xor	t5,t5,s2
   12194:	00cf1b93          	slli	s7,t5,0xc
   12198:	014f5f13          	srli	t5,t5,0x14
   1219c:	017f4f33          	xor	t5,t5,s7
   121a0:	01e30333          	add	t1,t1,t5
   121a4:	006b4b33          	xor	s6,s6,t1
   121a8:	008b1b93          	slli	s7,s6,0x8
   121ac:	018b5b13          	srli	s6,s6,0x18
   121b0:	017b4b33          	xor	s6,s6,s7
   121b4:	01690933          	add	s2,s2,s6
   121b8:	012f4f33          	xor	t5,t5,s2
   121bc:	007f1b93          	slli	s7,t5,0x7
   121c0:	019f5f13          	srli	t5,t5,0x19
   121c4:	017f4f33          	xor	t5,t5,s7
   121c8:	01c80833          	add	a6,a6,t3
   121cc:	010b4b33          	xor	s6,s6,a6
   121d0:	010b1b93          	slli	s7,s6,0x10
   121d4:	010b5b13          	srli	s6,s6,0x10
   121d8:	017b4b33          	xor	s6,s6,s7
   121dc:	016484b3          	add	s1,s1,s6
   121e0:	009e4e33          	xor	t3,t3,s1
   121e4:	00ce1b93          	slli	s7,t3,0xc
   121e8:	014e5e13          	srli	t3,t3,0x14
   121ec:	017e4e33          	xor	t3,t3,s7
   121f0:	01c80833          	add	a6,a6,t3
   121f4:	010b4b33          	xor	s6,s6,a6
   121f8:	008b1b93          	slli	s7,s6,0x8
   121fc:	018b5b13          	srli	s6,s6,0x18
   12200:	017b4b33          	xor	s6,s6,s7
   12204:	016484b3          	add	s1,s1,s6
   12208:	009e4e33          	xor	t3,t3,s1
   1220c:	007e1b93          	slli	s7,t3,0x7
   12210:	019e5e13          	srli	t3,t3,0x19
   12214:	017e4e33          	xor	t3,t3,s7
   12218:	01d888b3          	add	a7,a7,t4
   1221c:	0119c9b3          	xor	s3,s3,a7
   12220:	01099b93          	slli	s7,s3,0x10
   12224:	0109d993          	srli	s3,s3,0x10
   12228:	0179c9b3          	xor	s3,s3,s7
   1222c:	01390933          	add	s2,s2,s3
   12230:	012eceb3          	xor	t4,t4,s2
   12234:	00ce9b93          	slli	s7,t4,0xc
   12238:	014ede93          	srli	t4,t4,0x14
   1223c:	017eceb3          	xor	t4,t4,s7
   12240:	01d888b3          	add	a7,a7,t4
   12244:	0119c9b3          	xor	s3,s3,a7
   12248:	00899b93          	slli	s7,s3,0x8
   1224c:	0189d993          	srli	s3,s3,0x18
   12250:	0179c9b3          	xor	s3,s3,s7
   12254:	01390933          	add	s2,s2,s3
   12258:	012eceb3          	xor	t4,t4,s2
   1225c:	007e9b93          	slli	s7,t4,0x7
   12260:	019ede93          	srli	t4,t4,0x19
   12264:	017eceb3          	xor	t4,t4,s7
   12268:	01e282b3          	add	t0,t0,t5
   1226c:	005a4a33          	xor	s4,s4,t0
   12270:	010a1b93          	slli	s7,s4,0x10
   12274:	010a5a13          	srli	s4,s4,0x10
   12278:	017a4a33          	xor	s4,s4,s7
   1227c:	014f8fb3          	add	t6,t6,s4
   12280:	01ff4f33          	xor	t5,t5,t6
   12284:	00cf1b93          	slli	s7,t5,0xc
   12288:	014f5f13          	srli	t5,t5,0x14
   1228c:	017f4f33          	xor	t5,t5,s7
   12290:	01e282b3          	add	t0,t0,t5
   12294:	005a4a33          	xor	s4,s4,t0
   12298:	008a1b93          	slli	s7,s4,0x8
   1229c:	018a5a13          	srli	s4,s4,0x18
   122a0:	017a4a33          	xor	s4,s4,s7
   122a4:	014f8fb3          	add	t6,t6,s4
   122a8:	01ff4f33          	xor	t5,t5,t6
   122ac:	007f1b93          	slli	s7,t5,0x7
   122b0:	019f5f13          	srli	t5,t5,0x19
   122b4:	017f4f33          	xor	t5,t5,s7
   122b8:	00730333          	add	t1,t1,t2
   122bc:	006acab3          	xor	s5,s5,t1
   122c0:	010a9b93          	slli	s7,s5,0x10
   122c4:	010ada93          	srli	s5,s5,0x10
   122c8:	017acab3          	xor	s5,s5,s7
   122cc:	01540433          	add	s0,s0,s5
   122d0:	0083c3b3          	xor	t2,t2,s0
   122d4:	00c39b93          	slli	s7,t2,0xc
   122d8:	0143d393          	srli	t2,t2,0x14
   122dc:	0173c3b3          	xor	t2,t2,s7
   122e0:	00730333          	add	t1,t1,t2
   122e4:	006acab3          	xor	s5,s5,t1
   122e8:	008a9b93          	slli	s7,s5,0x8
   122ec:	018ada93          	srli	s5,s5,0x18
   122f0:	017acab3          	xor	s5,s5,s7
   122f4:	01540433          	add	s0,s0,s5
   122f8:	0083c3b3          	xor	t2,t2,s0
   122fc:	00739b93          	slli	s7,t2,0x7
   12300:	0193d393          	srli	t2,t2,0x19
   12304:	0173c3b3          	xor	t2,t2,s7
   12308:	00780833          	add	a6,a6,t2
   1230c:	0109c9b3          	xor	s3,s3,a6
   12310:	01099b93          	slli	s7,s3,0x10
   12314:	0109d993          	srli	s3,s3,0x10
   12318:	0179c9b3          	xor	s3,s3,s7
   1231c:	013f8fb3          	add	t6,t6,s3
   12320:	01f3c3b3          	xor	t2,t2,t6
   12324:	00c39b93          	slli	s7,t2,0xc
   12328:	0143d393          	srli	t2,t2,0x14
   1232c:	0173c3b3          	xor	t2,t2,s7
   12330:	00780833          	add	a6,a6,t2
   12334:	0109c9b3          	xor	s3,s3,a6
   12338:	00899b93          	slli	s7,s3,0x8
   1233c:	0189d993          	srli	s3,s3,0x18
   12340:	0179c9b3          	xor	s3,s3,s7
   12344:	013f8fb3          	add	t6,t6,s3
   12348:	01f3c3b3          	xor	t2,t2,t6
   1234c:	00739b93          	slli	s7,t2,0x7
   12350:	0193d393          	srli	t2,t2,0x19
   12354:	0173c3b3          	xor	t2,t2,s7
   12358:	01c888b3          	add	a7,a7,t3
   1235c:	011a4a33          	xor	s4,s4,a7
   12360:	010a1b93          	slli	s7,s4,0x10
   12364:	010a5a13          	srli	s4,s4,0x10
   12368:	017a4a33          	xor	s4,s4,s7
   1236c:	01440433          	add	s0,s0,s4
   12370:	008e4e33          	xor	t3,t3,s0
   12374:	00ce1b93          	slli	s7,t3,0xc
   12378:	014e5e13          	srli	t3,t3,0x14
   1237c:	017e4e33          	xor	t3,t3,s7
   12380:	01c888b3          	add	a7,a7,t3
   12384:	011a4a33          	xor	s4,s4,a7
   12388:	008a1b93          	slli	s7,s4,0x8
   1238c:	018a5a13          	srli	s4,s4,0x18
   12390:	017a4a33          	xor	s4,s4,s7
   12394:	01440433          	add	s0,s0,s4
   12398:	008e4e33          	xor	t3,t3,s0
   1239c:	007e1b93          	slli	s7,t3,0x7
   123a0:	019e5e13          	srli	t3,t3,0x19
   123a4:	017e4e33          	xor	t3,t3,s7
   123a8:	01d282b3          	add	t0,t0,t4
   123ac:	005acab3          	xor	s5,s5,t0
   123b0:	010a9b93          	slli	s7,s5,0x10
   123b4:	010ada93          	srli	s5,s5,0x10
   123b8:	017acab3          	xor	s5,s5,s7
   123bc:	015484b3          	add	s1,s1,s5
   123c0:	009eceb3          	xor	t4,t4,s1
   123c4:	00ce9b93          	slli	s7,t4,0xc
   123c8:	014ede93          	srli	t4,t4,0x14
   123cc:	017eceb3          	xor	t4,t4,s7
   123d0:	01d282b3          	add	t0,t0,t4
   123d4:	005acab3          	xor	s5,s5,t0
   123d8:	008a9b93          	slli	s7,s5,0x8
   123dc:	018ada93          	srli	s5,s5,0x18
   123e0:	017acab3          	xor	s5,s5,s7
   123e4:	015484b3          	add	s1,s1,s5
   123e8:	009eceb3          	xor	t4,t4,s1
   123ec:	007e9b93          	slli	s7,t4,0x7
   123f0:	019ede93          	srli	t4,t4,0x19
   123f4:	017eceb3          	xor	t4,t4,s7
   123f8:	01e30333          	add	t1,t1,t5
   123fc:	006b4b33          	xor	s6,s6,t1
   12400:	010b1b93          	slli	s7,s6,0x10
   12404:	010b5b13          	srli	s6,s6,0x10
   12408:	017b4b33          	xor	s6,s6,s7
   1240c:	01690933          	add	s2,s2,s6
   12410:	012f4f33          	xor	t5,t5,s2
   12414:	00cf1b93          	slli	s7,t5,0xc
   12418:	014f5f13          	srli	t5,t5,0x14
   1241c:	017f4f33          	xor	t5,t5,s7
   12420:	01e30333          	add	t1,t1,t5
   12424:	006b4b33          	xor	s6,s6,t1
   12428:	008b1b93          	slli	s7,s6,0x8
   1242c:	018b5b13          	srli	s6,s6,0x18
   12430:	017b4b33          	xor	s6,s6,s7
   12434:	01690933          	add	s2,s2,s6
   12438:	012f4f33          	xor	t5,t5,s2
   1243c:	007f1b93          	slli	s7,t5,0x7
   12440:	019f5f13          	srli	t5,t5,0x19
   12444:	017f4f33          	xor	t5,t5,s7
   12448:	01c80833          	add	a6,a6,t3
   1244c:	010b4b33          	xor	s6,s6,a6
   12450:	010b1b93          	slli	s7,s6,0x10
   12454:	010b5b13          	srli	s6,s6,0x10
   12458:	017b4b33          	xor	s6,s6,s7
   1245c:	016484b3          	add	s1,s1,s6
   12460:	009e4e33          	xor	t3,t3,s1
   12464:	00ce1b93          	slli	s7,t3,0xc
   12468:	014e5e13          	srli	t3,t3,0x14
   1246c:	017e4e33          	xor	t3,t3,s7
   12470:	01c80833          	add	a6,a6,t3
   12474:	010b4b33          	xor	s6,s6,a6
   12478:	008b1b93          	slli	s7,s6,0x8
   1247c:	018b5b13          	srli	s6,s6,0x18
   12480:	017b4b33          	xor	s6,s6,s7
   12484:	016484b3          	add	s1,s1,s6
   12488:	009e4e33          	xor	t3,t3,s1
   1248c:	007e1b93          	slli	s7,t3,0x7
   12490:	019e5e13          	srli	t3,t3,0x19
   12494:	017e4e33          	xor	t3,t3,s7
   12498:	01d888b3          	add	a7,a7,t4
   1249c:	0119c9b3          	xor	s3,s3,a7
   124a0:	01099b93          	slli	s7,s3,0x10
   124a4:	0109d993          	srli	s3,s3,0x10
   124a8:	0179c9b3          	xor	s3,s3,s7
   124ac:	01390933          	add	s2,s2,s3
   124b0:	012eceb3          	xor	t4,t4,s2
   124b4:	00ce9b93          	slli	s7,t4,0xc
   124b8:	014ede93          	srli	t4,t4,0x14
   124bc:	017eceb3          	xor	t4,t4,s7
   124c0:	01d888b3          	add	a7,a7,t4
   124c4:	0119c9b3          	xor	s3,s3,a7
   124c8:	00899b93          	slli	s7,s3,0x8
   124cc:	0189d993          	srli	s3,s3,0x18
   124d0:	0179c9b3          	xor	s3,s3,s7
   124d4:	01390933          	add	s2,s2,s3
   124d8:	012eceb3          	xor	t4,t4,s2
   124dc:	007e9b93          	slli	s7,t4,0x7
   124e0:	019ede93          	srli	t4,t4,0x19
   124e4:	017eceb3          	xor	t4,t4,s7
   124e8:	01e282b3          	add	t0,t0,t5
   124ec:	005a4a33          	xor	s4,s4,t0
   124f0:	010a1b93          	slli	s7,s4,0x10
   124f4:	010a5a13          	srli	s4,s4,0x10
   124f8:	017a4a33          	xor	s4,s4,s7
   124fc:	014f8fb3          	add	t6,t6,s4
   12500:	01ff4f33          	xor	t5,t5,t6
   12504:	00cf1b93          	slli	s7,t5,0xc
   12508:	014f5f13          	srli	t5,t5,0x14
   1250c:	017f4f33          	xor	t5,t5,s7
   12510:	01e282b3          	add	t0,t0,t5
   12514:	005a4a33          	xor	s4,s4,t0
   12518:	008a1b93          	slli	s7,s4,0x8
   1251c:	018a5a13          	srli	s4,s4,0x18
   12520:	017a4a33          	xor	s4,s4,s7
   12524:	014f8fb3          	add	t6,t6,s4
   12528:	01ff4f33          	xor	t5,t5,t6
   1252c:	007f1b93          	slli	s7,t5,0x7
   12530:	019f5f13          	srli	t5,t5,0x19
   12534:	017f4f33          	xor	t5,t5,s7
   12538:	00730333          	add	t1,t1,t2
   1253c:	006acab3          	xor	s5,s5,t1
   12540:	010a9b93          	slli	s7,s5,0x10
   12544:	010ada93          	srli	s5,s5,0x10
   12548:	017acab3          	xor	s5,s5,s7
   1254c:	01540433          	add	s0,s0,s5
   12550:	0083c3b3          	xor	t2,t2,s0
   12554:	00c39b93          	slli	s7,t2,0xc
   12558:	0143d393          	srli	t2,t2,0x14
   1255c:	0173c3b3          	xor	t2,t2,s7
   12560:	00730333          	add	t1,t1,t2
   12564:	006acab3          	xor	s5,s5,t1
   12568:	008a9b93          	slli	s7,s5,0x8
   1256c:	018ada93          	srli	s5,s5,0x18
   12570:	017acab3          	xor	s5,s5,s7
   12574:	01540433          	add	s0,s0,s5
   12578:	0083c3b3          	xor	t2,t2,s0
   1257c:	00739b93          	slli	s7,t2,0x7
   12580:	0193d393          	srli	t2,t2,0x19
   12584:	0173c3b3          	xor	t2,t2,s7
   12588:	00780833          	add	a6,a6,t2
   1258c:	0109c9b3          	xor	s3,s3,a6
   12590:	01099b93          	slli	s7,s3,0x10
   12594:	0109d993          	srli	s3,s3,0x10
   12598:	0179c9b3          	xor	s3,s3,s7
   1259c:	013f8fb3          	add	t6,t6,s3
   125a0:	01f3c3b3          	xor	t2,t2,t6
   125a4:	00c39b93          	slli	s7,t2,0xc
   125a8:	0143d393          	srli	t2,t2,0x14
   125ac:	0173c3b3          	xor	t2,t2,s7
   125b0:	00780833          	add	a6,a6,t2
   125b4:	0109c9b3          	xor	s3,s3,a6
   125b8:	00899b93          	slli	s7,s3,0x8
   125bc:	0189d993          	srli	s3,s3,0x18
   125c0:	0179c9b3          	xor	s3,s3,s7
   125c4:	013f8fb3          	add	t6,t6,s3
   125c8:	01f3c3b3          	xor	t2,t2,t6
   125cc:	00739b93          	slli	s7,t2,0x7
   125d0:	0193d393          	srli	t2,t2,0x19
   125d4:	0173c3b3          	xor	t2,t2,s7
   125d8:	01c888b3          	add	a7,a7,t3
   125dc:	011a4a33          	xor	s4,s4,a7
   125e0:	010a1b93          	slli	s7,s4,0x10
   125e4:	010a5a13          	srli	s4,s4,0x10
   125e8:	017a4a33          	xor	s4,s4,s7
   125ec:	01440433          	add	s0,s0,s4
   125f0:	008e4e33          	xor	t3,t3,s0
   125f4:	00ce1b93          	slli	s7,t3,0xc
   125f8:	014e5e13          	srli	t3,t3,0x14
   125fc:	017e4e33          	xor	t3,t3,s7
   12600:	01c888b3          	add	a7,a7,t3
   12604:	011a4a33          	xor	s4,s4,a7
   12608:	008a1b93          	slli	s7,s4,0x8
   1260c:	018a5a13          	srli	s4,s4,0x18
   12610:	017a4a33          	xor	s4,s4,s7
   12614:	01440433          	add	s0,s0,s4
   12618:	008e4e33          	xor	t3,t3,s0
   1261c:	007e1b93          	slli	s7,t3,0x7
   12620:	019e5e13          	srli	t3,t3,0x19
   12624:	017e4e33          	xor	t3,t3,s7
   12628:	01d282b3          	add	t0,t0,t4
   1262c:	005acab3          	xor	s5,s5,t0
   12630:	010a9b93          	slli	s7,s5,0x10
   12634:	010ada93          	srli	s5,s5,0x10
   12638:	017acab3          	xor	s5,s5,s7
   1263c:	015484b3          	add	s1,s1,s5
   12640:	009eceb3          	xor	t4,t4,s1
   12644:	00ce9b93          	slli	s7,t4,0xc
   12648:	014ede93          	srli	t4,t4,0x14
   1264c:	017eceb3          	xor	t4,t4,s7
   12650:	01d282b3          	add	t0,t0,t4
   12654:	005acab3          	xor	s5,s5,t0
   12658:	008a9b93          	slli	s7,s5,0x8
   1265c:	018ada93          	srli	s5,s5,0x18
   12660:	017acab3          	xor	s5,s5,s7
   12664:	015484b3          	add	s1,s1,s5
   12668:	009eceb3          	xor	t4,t4,s1
   1266c:	007e9b93          	slli	s7,t4,0x7
   12670:	019ede93          	srli	t4,t4,0x19
   12674:	017eceb3          	xor	t4,t4,s7
   12678:	01e30333          	add	t1,t1,t5
   1267c:	006b4b33          	xor	s6,s6,t1
   12680:	010b1b93          	slli	s7,s6,0x10
   12684:	010b5b13          	srli	s6,s6,0x10
   12688:	017b4b33          	xor	s6,s6,s7
   1268c:	01690933          	add	s2,s2,s6
   12690:	012f4f33          	xor	t5,t5,s2
   12694:	00cf1b93          	slli	s7,t5,0xc
   12698:	014f5f13          	srli	t5,t5,0x14
   1269c:	017f4f33          	xor	t5,t5,s7
   126a0:	01e30333          	add	t1,t1,t5
   126a4:	006b4b33          	xor	s6,s6,t1
   126a8:	008b1b93          	slli	s7,s6,0x8
   126ac:	018b5b13          	srli	s6,s6,0x18
   126b0:	017b4b33          	xor	s6,s6,s7
   126b4:	01690933          	add	s2,s2,s6
   126b8:	012f4f33          	xor	t5,t5,s2
   126bc:	007f1b93          	slli	s7,t5,0x7
   126c0:	019f5f13          	srli	t5,t5,0x19
   126c4:	017f4f33          	xor	t5,t5,s7
   126c8:	01c80833          	add	a6,a6,t3
   126cc:	010b4b33          	xor	s6,s6,a6
   126d0:	010b1b93          	slli	s7,s6,0x10
   126d4:	010b5b13          	srli	s6,s6,0x10
   126d8:	017b4b33          	xor	s6,s6,s7
   126dc:	016484b3          	add	s1,s1,s6
   126e0:	009e4e33          	xor	t3,t3,s1
   126e4:	00ce1b93          	slli	s7,t3,0xc
   126e8:	014e5e13          	srli	t3,t3,0x14
   126ec:	017e4e33          	xor	t3,t3,s7
   126f0:	01c80833          	add	a6,a6,t3
   126f4:	010b4b33          	xor	s6,s6,a6
   126f8:	008b1b93          	slli	s7,s6,0x8
   126fc:	018b5b13          	srli	s6,s6,0x18
   12700:	017b4b33          	xor	s6,s6,s7
   12704:	016484b3          	add	s1,s1,s6
   12708:	009e4e33          	xor	t3,t3,s1
   1270c:	007e1b93          	slli	s7,t3,0x7
   12710:	019e5e13          	srli	t3,t3,0x19
   12714:	017e4e33          	xor	t3,t3,s7
   12718:	01d888b3          	add	a7,a7,t4
   1271c:	0119c9b3          	xor	s3,s3,a7
   12720:	01099b93          	slli	s7,s3,0x10
   12724:	0109d993          	srli	s3,s3,0x10
   12728:	0179c9b3          	xor	s3,s3,s7
   1272c:	01390933          	add	s2,s2,s3
   12730:	012eceb3          	xor	t4,t4,s2
   12734:	00ce9b93          	slli	s7,t4,0xc
   12738:	014ede93          	srli	t4,t4,0x14
   1273c:	017eceb3          	xor	t4,t4,s7
   12740:	01d888b3          	add	a7,a7,t4
   12744:	0119c9b3          	xor	s3,s3,a7
   12748:	00899b93          	slli	s7,s3,0x8
   1274c:	0189d993          	srli	s3,s3,0x18
   12750:	0179c9b3          	xor	s3,s3,s7
   12754:	01390933          	add	s2,s2,s3
   12758:	012eceb3          	xor	t4,t4,s2
   1275c:	007e9b93          	slli	s7,t4,0x7
   12760:	019ede93          	srli	t4,t4,0x19
   12764:	017eceb3          	xor	t4,t4,s7
   12768:	01e282b3          	add	t0,t0,t5
   1276c:	005a4a33          	xor	s4,s4,t0
   12770:	010a1b93          	slli	s7,s4,0x10
   12774:	010a5a13          	srli	s4,s4,0x10
   12778:	017a4a33          	xor	s4,s4,s7
   1277c:	014f8fb3          	add	t6,t6,s4
   12780:	01ff4f33          	xor	t5,t5,t6
   12784:	00cf1b93          	slli	s7,t5,0xc
   12788:	014f5f13          	srli	t5,t5,0x14
   1278c:	017f4f33          	xor	t5,t5,s7
   12790:	01e282b3          	add	t0,t0,t5
   12794:	005a4a33          	xor	s4,s4,t0
   12798:	008a1b93          	slli	s7,s4,0x8
   1279c:	018a5a13          	srli	s4,s4,0x18
   127a0:	017a4a33          	xor	s4,s4,s7
   127a4:	014f8fb3          	add	t6,t6,s4
   127a8:	01ff4f33          	xor	t5,t5,t6
   127ac:	007f1b93          	slli	s7,t5,0x7
   127b0:	019f5f13          	srli	t5,t5,0x19
   127b4:	017f4f33          	xor	t5,t5,s7
   127b8:	00730333          	add	t1,t1,t2
   127bc:	006acab3          	xor	s5,s5,t1
   127c0:	010a9b93          	slli	s7,s5,0x10
   127c4:	010ada93          	srli	s5,s5,0x10
   127c8:	017acab3          	xor	s5,s5,s7
   127cc:	01540433          	add	s0,s0,s5
   127d0:	0083c3b3          	xor	t2,t2,s0
   127d4:	00c39b93          	slli	s7,t2,0xc
   127d8:	0143d393          	srli	t2,t2,0x14
   127dc:	0173c3b3          	xor	t2,t2,s7
   127e0:	00730333          	add	t1,t1,t2
   127e4:	006acab3          	xor	s5,s5,t1
   127e8:	008a9b93          	slli	s7,s5,0x8
   127ec:	018ada93          	srli	s5,s5,0x18
   127f0:	017acab3          	xor	s5,s5,s7
   127f4:	01540433          	add	s0,s0,s5
   127f8:	0083c3b3          	xor	t2,t2,s0
   127fc:	00739b93          	slli	s7,t2,0x7
   12800:	0193d393          	srli	t2,t2,0x19
   12804:	0173c3b3          	xor	t2,t2,s7
   12808:	00780833          	add	a6,a6,t2
   1280c:	0109c9b3          	xor	s3,s3,a6
   12810:	01099b93          	slli	s7,s3,0x10
   12814:	0109d993          	srli	s3,s3,0x10
   12818:	0179c9b3          	xor	s3,s3,s7
   1281c:	013f8fb3          	add	t6,t6,s3
   12820:	01f3c3b3          	xor	t2,t2,t6
   12824:	00c39b93          	slli	s7,t2,0xc
   12828:	0143d393          	srli	t2,t2,0x14
   1282c:	0173c3b3          	xor	t2,t2,s7
   12830:	00780833          	add	a6,a6,t2
   12834:	0109c9b3          	xor	s3,s3,a6
   12838:	00899b93          	slli	s7,s3,0x8
   1283c:	0189d993          	srli	s3,s3,0x18
   12840:	0179c9b3          	xor	s3,s3,s7
   12844:	013f8fb3          	add	t6,t6,s3
   12848:	01f3c3b3          	xor	t2,t2,t6
   1284c:	00739b93          	slli	s7,t2,0x7
   12850:	0193d393          	srli	t2,t2,0x19
   12854:	0173c3b3          	xor	t2,t2,s7
   12858:	01c888b3          	add	a7,a7,t3
   1285c:	011a4a33          	xor	s4,s4,a7
   12860:	010a1b93          	slli	s7,s4,0x10
   12864:	010a5a13          	srli	s4,s4,0x10
   12868:	017a4a33          	xor	s4,s4,s7
   1286c:	01440433          	add	s0,s0,s4
   12870:	008e4e33          	xor	t3,t3,s0
   12874:	00ce1b93          	slli	s7,t3,0xc
   12878:	014e5e13          	srli	t3,t3,0x14
   1287c:	017e4e33          	xor	t3,t3,s7
   12880:	01c888b3          	add	a7,a7,t3
   12884:	011a4a33          	xor	s4,s4,a7
   12888:	008a1b93          	slli	s7,s4,0x8
   1288c:	018a5a13          	srli	s4,s4,0x18
   12890:	017a4a33          	xor	s4,s4,s7
   12894:	01440433          	add	s0,s0,s4
   12898:	008e4e33          	xor	t3,t3,s0
   1289c:	007e1b93          	slli	s7,t3,0x7
   128a0:	019e5e13          	srli	t3,t3,0x19
   128a4:	017e4e33          	xor	t3,t3,s7
   128a8:	01d282b3          	add	t0,t0,t4
   128ac:	005acab3          	xor	s5,s5,t0
   128b0:	010a9b93          	slli	s7,s5,0x10
   128b4:	010ada93          	srli	s5,s5,0x10
   128b8:	017acab3          	xor	s5,s5,s7
   128bc:	015484b3          	add	s1,s1,s5
   128c0:	009eceb3          	xor	t4,t4,s1
   128c4:	00ce9b93          	slli	s7,t4,0xc
   128c8:	014ede93          	srli	t4,t4,0x14
   128cc:	017eceb3          	xor	t4,t4,s7
   128d0:	01d282b3          	add	t0,t0,t4
   128d4:	005acab3          	xor	s5,s5,t0
   128d8:	008a9b93          	slli	s7,s5,0x8
   128dc:	018ada93          	srli	s5,s5,0x18
   128e0:	017acab3          	xor	s5,s5,s7
   128e4:	015484b3          	add	s1,s1,s5
   128e8:	009eceb3          	xor	t4,t4,s1
   128ec:	007e9b93          	slli	s7,t4,0x7
   128f0:	019ede93          	srli	t4,t4,0x19
   128f4:	017eceb3          	xor	t4,t4,s7
   128f8:	01e30333          	add	t1,t1,t5
   128fc:	006b4b33          	xor	s6,s6,t1
   12900:	010b1b93          	slli	s7,s6,0x10
   12904:	010b5b13          	srli	s6,s6,0x10
   12908:	017b4b33          	xor	s6,s6,s7
   1290c:	01690933          	add	s2,s2,s6
   12910:	012f4f33          	xor	t5,t5,s2
   12914:	00cf1b93          	slli	s7,t5,0xc
   12918:	014f5f13          	srli	t5,t5,0x14
   1291c:	017f4f33          	xor	t5,t5,s7
   12920:	01e30333          	add	t1,t1,t5
   12924:	006b4b33          	xor	s6,s6,t1
   12928:	008b1b93          	slli	s7,s6,0x8
   1292c:	018b5b13          	srli	s6,s6,0x18
   12930:	017b4b33          	xor	s6,s6,s7
   12934:	01690933          	add	s2,s2,s6
   12938:	012f4f33          	xor	t5,t5,s2
   1293c:	007f1b93          	slli	s7,t5,0x7
   12940:	019f5f13          	srli	t5,t5,0x19
   12944:	017f4f33          	xor	t5,t5,s7
   12948:	01c80833          	add	a6,a6,t3
   1294c:	010b4b33          	xor	s6,s6,a6
   12950:	010b1b93          	slli	s7,s6,0x10
   12954:	010b5b13          	srli	s6,s6,0x10
   12958:	017b4b33          	xor	s6,s6,s7
   1295c:	016484b3          	add	s1,s1,s6
   12960:	009e4e33          	xor	t3,t3,s1
   12964:	00ce1b93          	slli	s7,t3,0xc
   12968:	014e5e13          	srli	t3,t3,0x14
   1296c:	017e4e33          	xor	t3,t3,s7
   12970:	01c80833          	add	a6,a6,t3
   12974:	010b4b33          	xor	s6,s6,a6
   12978:	008b1b93          	slli	s7,s6,0x8
   1297c:	018b5b13          	srli	s6,s6,0x18
   12980:	017b4b33          	xor	s6,s6,s7
   12984:	016484b3          	add	s1,s1,s6
   12988:	009e4e33          	xor	t3,t3,s1
   1298c:	007e1b93          	slli	s7,t3,0x7
   12990:	019e5e13          	srli	t3,t3,0x19
   12994:	017e4e33          	xor	t3,t3,s7
   12998:	01d888b3          	add	a7,a7,t4
   1299c:	0119c9b3          	xor	s3,s3,a7
   129a0:	01099b93          	slli	s7,s3,0x10
   129a4:	0109d993          	srli	s3,s3,0x10
   129a8:	0179c9b3          	xor	s3,s3,s7
   129ac:	01390933          	add	s2,s2,s3
   129b0:	012eceb3          	xor	t4,t4,s2
   129b4:	00ce9b93          	slli	s7,t4,0xc
   129b8:	014ede93          	srli	t4,t4,0x14
   129bc:	017eceb3          	xor	t4,t4,s7
   129c0:	01d888b3          	add	a7,a7,t4
   129c4:	0119c9b3          	xor	s3,s3,a7
   129c8:	00899b93          	slli	s7,s3,0x8
   129cc:	0189d993          	srli	s3,s3,0x18
   129d0:	0179c9b3          	xor	s3,s3,s7
   129d4:	01390933          	add	s2,s2,s3
   129d8:	012eceb3          	xor	t4,t4,s2
   129dc:	007e9b93          	slli	s7,t4,0x7
   129e0:	019ede93          	srli	t4,t4,0x19
   129e4:	017eceb3          	xor	t4,t4,s7
   129e8:	01e282b3          	add	t0,t0,t5
   129ec:	005a4a33          	xor	s4,s4,t0
   129f0:	010a1b93          	slli	s7,s4,0x10
   129f4:	010a5a13          	srli	s4,s4,0x10
   129f8:	017a4a33          	xor	s4,s4,s7
   129fc:	014f8fb3          	add	t6,t6,s4
   12a00:	01ff4f33          	xor	t5,t5,t6
   12a04:	00cf1b93          	slli	s7,t5,0xc
   12a08:	014f5f13          	srli	t5,t5,0x14
   12a0c:	017f4f33          	xor	t5,t5,s7
   12a10:	01e282b3          	add	t0,t0,t5
   12a14:	005a4a33          	xor	s4,s4,t0
   12a18:	008a1b93          	slli	s7,s4,0x8
   12a1c:	018a5a13          	srli	s4,s4,0x18
   12a20:	017a4a33          	xor	s4,s4,s7
   12a24:	014f8fb3          	add	t6,t6,s4
   12a28:	01ff4f33          	xor	t5,t5,t6
   12a2c:	007f1b93          	slli	s7,t5,0x7
   12a30:	019f5f13          	srli	t5,t5,0x19
   12a34:	017f4f33          	xor	t5,t5,s7
   12a38:	00730333          	add	t1,t1,t2
   12a3c:	006acab3          	xor	s5,s5,t1
   12a40:	010a9b93          	slli	s7,s5,0x10
   12a44:	010ada93          	srli	s5,s5,0x10
   12a48:	017acab3          	xor	s5,s5,s7
   12a4c:	01540433          	add	s0,s0,s5
   12a50:	0083c3b3          	xor	t2,t2,s0
   12a54:	00c39b93          	slli	s7,t2,0xc
   12a58:	0143d393          	srli	t2,t2,0x14
   12a5c:	0173c3b3          	xor	t2,t2,s7
   12a60:	00730333          	add	t1,t1,t2
   12a64:	006acab3          	xor	s5,s5,t1
   12a68:	008a9b93          	slli	s7,s5,0x8
   12a6c:	018ada93          	srli	s5,s5,0x18
   12a70:	017acab3          	xor	s5,s5,s7
   12a74:	01540433          	add	s0,s0,s5
   12a78:	0083c3b3          	xor	t2,t2,s0
   12a7c:	00739b93          	slli	s7,t2,0x7
   12a80:	0193d393          	srli	t2,t2,0x19
   12a84:	0173c3b3          	xor	t2,t2,s7
   12a88:	00780833          	add	a6,a6,t2
   12a8c:	0109c9b3          	xor	s3,s3,a6
   12a90:	01099b93          	slli	s7,s3,0x10
   12a94:	0109d993          	srli	s3,s3,0x10
   12a98:	0179c9b3          	xor	s3,s3,s7
   12a9c:	013f8fb3          	add	t6,t6,s3
   12aa0:	01f3c3b3          	xor	t2,t2,t6
   12aa4:	00c39b93          	slli	s7,t2,0xc
   12aa8:	0143d393          	srli	t2,t2,0x14
   12aac:	0173c3b3          	xor	t2,t2,s7
   12ab0:	00780833          	add	a6,a6,t2
   12ab4:	0109c9b3          	xor	s3,s3,a6
   12ab8:	00899b93          	slli	s7,s3,0x8
   12abc:	0189d993          	srli	s3,s3,0x18
   12ac0:	0179c9b3          	xor	s3,s3,s7
   12ac4:	013f8fb3          	add	t6,t6,s3
   12ac8:	01f3c3b3          	xor	t2,t2,t6
   12acc:	00739b93          	slli	s7,t2,0x7
   12ad0:	0193d393          	srli	t2,t2,0x19
   12ad4:	0173c3b3          	xor	t2,t2,s7
   12ad8:	01c888b3          	add	a7,a7,t3
   12adc:	011a4a33          	xor	s4,s4,a7
   12ae0:	010a1b93          	slli	s7,s4,0x10
   12ae4:	010a5a13          	srli	s4,s4,0x10
   12ae8:	017a4a33          	xor	s4,s4,s7
   12aec:	01440433          	add	s0,s0,s4
   12af0:	008e4e33          	xor	t3,t3,s0
   12af4:	00ce1b93          	slli	s7,t3,0xc
   12af8:	014e5e13          	srli	t3,t3,0x14
   12afc:	017e4e33          	xor	t3,t3,s7
   12b00:	01c888b3          	add	a7,a7,t3
   12b04:	011a4a33          	xor	s4,s4,a7
   12b08:	008a1b93          	slli	s7,s4,0x8
   12b0c:	018a5a13          	srli	s4,s4,0x18
   12b10:	017a4a33          	xor	s4,s4,s7
   12b14:	01440433          	add	s0,s0,s4
   12b18:	008e4e33          	xor	t3,t3,s0
   12b1c:	007e1b93          	slli	s7,t3,0x7
   12b20:	019e5e13          	srli	t3,t3,0x19
   12b24:	017e4e33          	xor	t3,t3,s7
   12b28:	01d282b3          	add	t0,t0,t4
   12b2c:	005acab3          	xor	s5,s5,t0
   12b30:	010a9b93          	slli	s7,s5,0x10
   12b34:	010ada93          	srli	s5,s5,0x10
   12b38:	017acab3          	xor	s5,s5,s7
   12b3c:	015484b3          	add	s1,s1,s5
   12b40:	009eceb3          	xor	t4,t4,s1
   12b44:	00ce9b93          	slli	s7,t4,0xc
   12b48:	014ede93          	srli	t4,t4,0x14
   12b4c:	017eceb3          	xor	t4,t4,s7
   12b50:	01d282b3          	add	t0,t0,t4
   12b54:	005acab3          	xor	s5,s5,t0
   12b58:	008a9b93          	slli	s7,s5,0x8
   12b5c:	018ada93          	srli	s5,s5,0x18
   12b60:	017acab3          	xor	s5,s5,s7
   12b64:	015484b3          	add	s1,s1,s5
   12b68:	009eceb3          	xor	t4,t4,s1
   12b6c:	007e9b93          	slli	s7,t4,0x7
   12b70:	019ede93          	srli	t4,t4,0x19
   12b74:	017eceb3          	xor	t4,t4,s7
   12b78:	01e30333          	add	t1,t1,t5
   12b7c:	006b4b33          	xor	s6,s6,t1
   12b80:	010b1b93          	slli	s7,s6,0x10
   12b84:	010b5b13          	srli	s6,s6,0x10
   12b88:	017b4b33          	xor	s6,s6,s7
   12b8c:	01690933          	add	s2,s2,s6
   12b90:	012f4f33          	xor	t5,t5,s2
   12b94:	00cf1b93          	slli	s7,t5,0xc
   12b98:	014f5f13          	srli	t5,t5,0x14
   12b9c:	017f4f33          	xor	t5,t5,s7
   12ba0:	01e30333          	add	t1,t1,t5
   12ba4:	006b4b33          	xor	s6,s6,t1
   12ba8:	008b1b93          	slli	s7,s6,0x8
   12bac:	018b5b13          	srli	s6,s6,0x18
   12bb0:	017b4b33          	xor	s6,s6,s7
   12bb4:	01690933          	add	s2,s2,s6
   12bb8:	012f4f33          	xor	t5,t5,s2
   12bbc:	007f1b93          	slli	s7,t5,0x7
   12bc0:	019f5f13          	srli	t5,t5,0x19
   12bc4:	017f4f33          	xor	t5,t5,s7
   12bc8:	01c80833          	add	a6,a6,t3
   12bcc:	010b4b33          	xor	s6,s6,a6
   12bd0:	010b1b93          	slli	s7,s6,0x10
   12bd4:	010b5b13          	srli	s6,s6,0x10
   12bd8:	017b4b33          	xor	s6,s6,s7
   12bdc:	016484b3          	add	s1,s1,s6
   12be0:	009e4e33          	xor	t3,t3,s1
   12be4:	00ce1b93          	slli	s7,t3,0xc
   12be8:	014e5e13          	srli	t3,t3,0x14
   12bec:	017e4e33          	xor	t3,t3,s7
   12bf0:	01c80833          	add	a6,a6,t3
   12bf4:	010b4b33          	xor	s6,s6,a6
   12bf8:	008b1b93          	slli	s7,s6,0x8
   12bfc:	018b5b13          	srli	s6,s6,0x18
   12c00:	017b4b33          	xor	s6,s6,s7
   12c04:	016484b3          	add	s1,s1,s6
   12c08:	009e4e33          	xor	t3,t3,s1
   12c0c:	007e1b93          	slli	s7,t3,0x7
   12c10:	019e5e13          	srli	t3,t3,0x19
   12c14:	017e4e33          	xor	t3,t3,s7
   12c18:	01d888b3          	add	a7,a7,t4
   12c1c:	0119c9b3          	xor	s3,s3,a7
   12c20:	01099b93          	slli	s7,s3,0x10
   12c24:	0109d993          	srli	s3,s3,0x10
   12c28:	0179c9b3          	xor	s3,s3,s7
   12c2c:	01390933          	add	s2,s2,s3
   12c30:	012eceb3          	xor	t4,t4,s2
   12c34:	00ce9b93          	slli	s7,t4,0xc
   12c38:	014ede93          	srli	t4,t4,0x14
   12c3c:	017eceb3          	xor	t4,t4,s7
   12c40:	01d888b3          	add	a7,a7,t4
   12c44:	0119c9b3          	xor	s3,s3,a7
   12c48:	00899b93          	slli	s7,s3,0x8
   12c4c:	0189d993          	srli	s3,s3,0x18
   12c50:	0179c9b3          	xor	s3,s3,s7
   12c54:	01390933          	add	s2,s2,s3
   12c58:	012eceb3          	xor	t4,t4,s2
   12c5c:	007e9b93          	slli	s7,t4,0x7
   12c60:	019ede93          	srli	t4,t4,0x19
   12c64:	017eceb3          	xor	t4,t4,s7
   12c68:	01e282b3          	add	t0,t0,t5
   12c6c:	005a4a33          	xor	s4,s4,t0
   12c70:	010a1b93          	slli	s7,s4,0x10
   12c74:	010a5a13          	srli	s4,s4,0x10
   12c78:	017a4a33          	xor	s4,s4,s7
   12c7c:	014f8fb3          	add	t6,t6,s4
   12c80:	01ff4f33          	xor	t5,t5,t6
   12c84:	00cf1b93          	slli	s7,t5,0xc
   12c88:	014f5f13          	srli	t5,t5,0x14
   12c8c:	017f4f33          	xor	t5,t5,s7
   12c90:	01e282b3          	add	t0,t0,t5
   12c94:	005a4a33          	xor	s4,s4,t0
   12c98:	008a1b93          	slli	s7,s4,0x8
   12c9c:	018a5a13          	srli	s4,s4,0x18
   12ca0:	017a4a33          	xor	s4,s4,s7
   12ca4:	014f8fb3          	add	t6,t6,s4
   12ca8:	01ff4f33          	xor	t5,t5,t6
   12cac:	007f1b93          	slli	s7,t5,0x7
   12cb0:	019f5f13          	srli	t5,t5,0x19
   12cb4:	017f4f33          	xor	t5,t5,s7
   12cb8:	00730333          	add	t1,t1,t2
   12cbc:	006acab3          	xor	s5,s5,t1
   12cc0:	010a9b93          	slli	s7,s5,0x10
   12cc4:	010ada93          	srli	s5,s5,0x10
   12cc8:	017acab3          	xor	s5,s5,s7
   12ccc:	01540433          	add	s0,s0,s5
   12cd0:	0083c3b3          	xor	t2,t2,s0
   12cd4:	00c39b93          	slli	s7,t2,0xc
   12cd8:	0143d393          	srli	t2,t2,0x14
   12cdc:	0173c3b3          	xor	t2,t2,s7
   12ce0:	00730333          	add	t1,t1,t2
   12ce4:	006acab3          	xor	s5,s5,t1
   12ce8:	008a9b93          	slli	s7,s5,0x8
   12cec:	018ada93          	srli	s5,s5,0x18
   12cf0:	017acab3          	xor	s5,s5,s7
   12cf4:	01540433          	add	s0,s0,s5
   12cf8:	0083c3b3          	xor	t2,t2,s0
   12cfc:	00739b93          	slli	s7,t2,0x7
   12d00:	0193d393          	srli	t2,t2,0x19
   12d04:	0173c3b3          	xor	t2,t2,s7
   12d08:	00780833          	add	a6,a6,t2
   12d0c:	0109c9b3          	xor	s3,s3,a6
   12d10:	01099b93          	slli	s7,s3,0x10
   12d14:	0109d993          	srli	s3,s3,0x10
   12d18:	0179c9b3          	xor	s3,s3,s7
   12d1c:	013f8fb3          	add	t6,t6,s3
   12d20:	01f3c3b3          	xor	t2,t2,t6
   12d24:	00c39b93          	slli	s7,t2,0xc
   12d28:	0143d393          	srli	t2,t2,0x14
   12d2c:	0173c3b3          	xor	t2,t2,s7
   12d30:	00780833          	add	a6,a6,t2
   12d34:	0109c9b3          	xor	s3,s3,a6
   12d38:	00899b93          	slli	s7,s3,0x8
   12d3c:	0189d993          	srli	s3,s3,0x18
   12d40:	0179c9b3          	xor	s3,s3,s7
   12d44:	013f8fb3          	add	t6,t6,s3
   12d48:	01f3c3b3          	xor	t2,t2,t6
   12d4c:	00739b93          	slli	s7,t2,0x7
   12d50:	0193d393          	srli	t2,t2,0x19
   12d54:	0173c3b3          	xor	t2,t2,s7
   12d58:	01c888b3          	add	a7,a7,t3
   12d5c:	011a4a33          	xor	s4,s4,a7
   12d60:	010a1b93          	slli	s7,s4,0x10
   12d64:	010a5a13          	srli	s4,s4,0x10
   12d68:	017a4a33          	xor	s4,s4,s7
   12d6c:	01440433          	add	s0,s0,s4
   12d70:	008e4e33          	xor	t3,t3,s0
   12d74:	00ce1b93          	slli	s7,t3,0xc
   12d78:	014e5e13          	srli	t3,t3,0x14
   12d7c:	017e4e33          	xor	t3,t3,s7
   12d80:	01c888b3          	add	a7,a7,t3
   12d84:	011a4a33          	xor	s4,s4,a7
   12d88:	008a1b93          	slli	s7,s4,0x8
   12d8c:	018a5a13          	srli	s4,s4,0x18
   12d90:	017a4a33          	xor	s4,s4,s7
   12d94:	01440433          	add	s0,s0,s4
   12d98:	008e4e33          	xor	t3,t3,s0
   12d9c:	007e1b93          	slli	s7,t3,0x7
   12da0:	019e5e13          	srli	t3,t3,0x19
   12da4:	017e4e33          	xor	t3,t3,s7
   12da8:	01d282b3          	add	t0,t0,t4
   12dac:	005acab3          	xor	s5,s5,t0
   12db0:	010a9b93          	slli	s7,s5,0x10
   12db4:	010ada93          	srli	s5,s5,0x10
   12db8:	017acab3          	xor	s5,s5,s7
   12dbc:	015484b3          	add	s1,s1,s5
   12dc0:	009eceb3          	xor	t4,t4,s1
   12dc4:	00ce9b93          	slli	s7,t4,0xc
   12dc8:	014ede93          	srli	t4,t4,0x14
   12dcc:	017eceb3          	xor	t4,t4,s7
   12dd0:	01d282b3          	add	t0,t0,t4
   12dd4:	005acab3          	xor	s5,s5,t0
   12dd8:	008a9b93          	slli	s7,s5,0x8
   12ddc:	018ada93          	srli	s5,s5,0x18
   12de0:	017acab3          	xor	s5,s5,s7
   12de4:	015484b3          	add	s1,s1,s5
   12de8:	009eceb3          	xor	t4,t4,s1
   12dec:	007e9b93          	slli	s7,t4,0x7
   12df0:	019ede93          	srli	t4,t4,0x19
   12df4:	017eceb3          	xor	t4,t4,s7
   12df8:	01e30333          	add	t1,t1,t5
   12dfc:	006b4b33          	xor	s6,s6,t1
   12e00:	010b1b93          	slli	s7,s6,0x10
   12e04:	010b5b13          	srli	s6,s6,0x10
   12e08:	017b4b33          	xor	s6,s6,s7
   12e0c:	01690933          	add	s2,s2,s6
   12e10:	012f4f33          	xor	t5,t5,s2
   12e14:	00cf1b93          	slli	s7,t5,0xc
   12e18:	014f5f13          	srli	t5,t5,0x14
   12e1c:	017f4f33          	xor	t5,t5,s7
   12e20:	01e30333          	add	t1,t1,t5
   12e24:	006b4b33          	xor	s6,s6,t1
   12e28:	008b1b93          	slli	s7,s6,0x8
   12e2c:	018b5b13          	srli	s6,s6,0x18
   12e30:	017b4b33          	xor	s6,s6,s7
   12e34:	01690933          	add	s2,s2,s6
   12e38:	012f4f33          	xor	t5,t5,s2
   12e3c:	007f1b93          	slli	s7,t5,0x7
   12e40:	019f5f13          	srli	t5,t5,0x19
   12e44:	017f4f33          	xor	t5,t5,s7
   12e48:	01c80833          	add	a6,a6,t3
   12e4c:	010b4b33          	xor	s6,s6,a6
   12e50:	010b1b93          	slli	s7,s6,0x10
   12e54:	010b5b13          	srli	s6,s6,0x10
   12e58:	017b4b33          	xor	s6,s6,s7
   12e5c:	016484b3          	add	s1,s1,s6
   12e60:	009e4e33          	xor	t3,t3,s1
   12e64:	00ce1b93          	slli	s7,t3,0xc
   12e68:	014e5e13          	srli	t3,t3,0x14
   12e6c:	017e4e33          	xor	t3,t3,s7
   12e70:	01c80833          	add	a6,a6,t3
   12e74:	010b4b33          	xor	s6,s6,a6
   12e78:	008b1b93          	slli	s7,s6,0x8
   12e7c:	018b5b13          	srli	s6,s6,0x18
   12e80:	017b4b33          	xor	s6,s6,s7
   12e84:	016484b3          	add	s1,s1,s6
   12e88:	009e4e33          	xor	t3,t3,s1
   12e8c:	007e1b93          	slli	s7,t3,0x7
   12e90:	019e5e13          	srli	t3,t3,0x19
   12e94:	017e4e33          	xor	t3,t3,s7
   12e98:	01d888b3          	add	a7,a7,t4
   12e9c:	0119c9b3          	xor	s3,s3,a7
   12ea0:	01099b93          	slli	s7,s3,0x10
   12ea4:	0109d993          	srli	s3,s3,0x10
   12ea8:	0179c9b3          	xor	s3,s3,s7
   12eac:	01390933          	add	s2,s2,s3
   12eb0:	012eceb3          	xor	t4,t4,s2
   12eb4:	00ce9b93          	slli	s7,t4,0xc
   12eb8:	014ede93          	srli	t4,t4,0x14
   12ebc:	017eceb3          	xor	t4,t4,s7
   12ec0:	01d888b3          	add	a7,a7,t4
   12ec4:	0119c9b3          	xor	s3,s3,a7
   12ec8:	00899b93          	slli	s7,s3,0x8
   12ecc:	0189d993          	srli	s3,s3,0x18
   12ed0:	0179c9b3          	xor	s3,s3,s7
   12ed4:	01390933          	add	s2,s2,s3
   12ed8:	012eceb3          	xor	t4,t4,s2
   12edc:	007e9b93          	slli	s7,t4,0x7
   12ee0:	019ede93          	srli	t4,t4,0x19
   12ee4:	017eceb3          	xor	t4,t4,s7
   12ee8:	01e282b3          	add	t0,t0,t5
   12eec:	005a4a33          	xor	s4,s4,t0
   12ef0:	010a1b93          	slli	s7,s4,0x10
   12ef4:	010a5a13          	srli	s4,s4,0x10
   12ef8:	017a4a33          	xor	s4,s4,s7
   12efc:	014f8fb3          	add	t6,t6,s4
   12f00:	01ff4f33          	xor	t5,t5,t6
   12f04:	00cf1b93          	slli	s7,t5,0xc
   12f08:	014f5f13          	srli	t5,t5,0x14
   12f0c:	017f4f33          	xor	t5,t5,s7
   12f10:	01e282b3          	add	t0,t0,t5
   12f14:	005a4a33          	xor	s4,s4,t0
   12f18:	008a1b93          	slli	s7,s4,0x8
   12f1c:	018a5a13          	srli	s4,s4,0x18
   12f20:	017a4a33          	xor	s4,s4,s7
   12f24:	014f8fb3          	add	t6,t6,s4
   12f28:	01ff4f33          	xor	t5,t5,t6
   12f2c:	007f1b93          	slli	s7,t5,0x7
   12f30:	019f5f13          	srli	t5,t5,0x19
   12f34:	017f4f33          	xor	t5,t5,s7
   12f38:	00730333          	add	t1,t1,t2
   12f3c:	006acab3          	xor	s5,s5,t1
   12f40:	010a9b93          	slli	s7,s5,0x10
   12f44:	010ada93          	srli	s5,s5,0x10
   12f48:	017acab3          	xor	s5,s5,s7
   12f4c:	01540433          	add	s0,s0,s5
   12f50:	0083c3b3          	xor	t2,t2,s0
   12f54:	00c39b93          	slli	s7,t2,0xc
   12f58:	0143d393          	srli	t2,t2,0x14
   12f5c:	0173c3b3          	xor	t2,t2,s7
   12f60:	00730333          	add	t1,t1,t2
   12f64:	006acab3          	xor	s5,s5,t1
   12f68:	008a9b93          	slli	s7,s5,0x8
   12f6c:	018ada93          	srli	s5,s5,0x18
   12f70:	017acab3          	xor	s5,s5,s7
   12f74:	01540433          	add	s0,s0,s5
   12f78:	0083c3b3          	xor	t2,t2,s0
   12f7c:	00739b93          	slli	s7,t2,0x7
   12f80:	0193d393          	srli	t2,t2,0x19
   12f84:	0173c3b3          	xor	t2,t2,s7
   12f88:	00780833          	add	a6,a6,t2
   12f8c:	0109c9b3          	xor	s3,s3,a6
   12f90:	01099b93          	slli	s7,s3,0x10
   12f94:	0109d993          	srli	s3,s3,0x10
   12f98:	0179c9b3          	xor	s3,s3,s7
   12f9c:	013f8fb3          	add	t6,t6,s3
   12fa0:	01f3c3b3          	xor	t2,t2,t6
   12fa4:	00c39b93          	slli	s7,t2,0xc
   12fa8:	0143d393          	srli	t2,t2,0x14
   12fac:	0173c3b3          	xor	t2,t2,s7
   12fb0:	00780833          	add	a6,a6,t2
   12fb4:	0109c9b3          	xor	s3,s3,a6
   12fb8:	00899b93          	slli	s7,s3,0x8
   12fbc:	0189d993          	srli	s3,s3,0x18
   12fc0:	0179c9b3          	xor	s3,s3,s7
   12fc4:	013f8fb3          	add	t6,t6,s3
   12fc8:	01f3c3b3          	xor	t2,t2,t6
   12fcc:	00739b93          	slli	s7,t2,0x7
   12fd0:	0193d393          	srli	t2,t2,0x19
   12fd4:	0173c3b3          	xor	t2,t2,s7
   12fd8:	01c888b3          	add	a7,a7,t3
   12fdc:	011a4a33          	xor	s4,s4,a7
   12fe0:	010a1b93          	slli	s7,s4,0x10
   12fe4:	010a5a13          	srli	s4,s4,0x10
   12fe8:	017a4a33          	xor	s4,s4,s7
   12fec:	01440433          	add	s0,s0,s4
   12ff0:	008e4e33          	xor	t3,t3,s0
   12ff4:	00ce1b93          	slli	s7,t3,0xc
   12ff8:	014e5e13          	srli	t3,t3,0x14
   12ffc:	017e4e33          	xor	t3,t3,s7
   13000:	01c888b3          	add	a7,a7,t3
   13004:	011a4a33          	xor	s4,s4,a7
   13008:	008a1b93          	slli	s7,s4,0x8
   1300c:	018a5a13          	srli	s4,s4,0x18
   13010:	017a4a33          	xor	s4,s4,s7
   13014:	01440433          	add	s0,s0,s4
   13018:	008e4e33          	xor	t3,t3,s0
   1301c:	007e1b93          	slli	s7,t3,0x7
   13020:	019e5e13          	srli	t3,t3,0x19
   13024:	017e4e33          	xor	t3,t3,s7
   13028:	01d282b3          	add	t0,t0,t4
   1302c:	005acab3          	xor	s5,s5,t0
   13030:	010a9b93          	slli	s7,s5,0x10
   13034:	010ada93          	srli	s5,s5,0x10
   13038:	017acab3          	xor	s5,s5,s7
   1303c:	015484b3          	add	s1,s1,s5
   13040:	009eceb3          	xor	t4,t4,s1
   13044:	00ce9b93          	slli	s7,t4,0xc
   13048:	014ede93          	srli	t4,t4,0x14
   1304c:	017eceb3          	xor	t4,t4,s7
   13050:	01d282b3          	add	t0,t0,t4
   13054:	005acab3          	xor	s5,s5,t0
   13058:	008a9b93          	slli	s7,s5,0x8
   1305c:	018ada93          	srli	s5,s5,0x18
   13060:	017acab3          	xor	s5,s5,s7
   13064:	015484b3          	add	s1,s1,s5
   13068:	009eceb3          	xor	t4,t4,s1
   1306c:	007e9b93          	slli	s7,t4,0x7
   13070:	019ede93          	srli	t4,t4,0x19
   13074:	017eceb3          	xor	t4,t4,s7
   13078:	01e30333          	add	t1,t1,t5
   1307c:	006b4b33          	xor	s6,s6,t1
   13080:	010b1b93          	slli	s7,s6,0x10
   13084:	010b5b13          	srli	s6,s6,0x10
   13088:	017b4b33          	xor	s6,s6,s7
   1308c:	01690933          	add	s2,s2,s6
   13090:	012f4f33          	xor	t5,t5,s2
   13094:	00cf1b93          	slli	s7,t5,0xc
   13098:	014f5f13          	srli	t5,t5,0x14
   1309c:	017f4f33          	xor	t5,t5,s7
   130a0:	01e30333          	add	t1,t1,t5
   130a4:	006b4b33          	xor	s6,s6,t1
   130a8:	008b1b93          	slli	s7,s6,0x8
   130ac:	018b5b13          	srli	s6,s6,0x18
   130b0:	017b4b33          	xor	s6,s6,s7
   130b4:	01690933          	add	s2,s2,s6
   130b8:	012f4f33          	xor	t5,t5,s2
   130bc:	007f1b93          	slli	s7,t5,0x7
   130c0:	019f5f13          	srli	t5,t5,0x19
   130c4:	017f4f33          	xor	t5,t5,s7
   130c8:	01c80833          	add	a6,a6,t3
   130cc:	010b4b33          	xor	s6,s6,a6
   130d0:	010b1b93          	slli	s7,s6,0x10
   130d4:	010b5b13          	srli	s6,s6,0x10
   130d8:	017b4b33          	xor	s6,s6,s7
   130dc:	016484b3          	add	s1,s1,s6
   130e0:	009e4e33          	xor	t3,t3,s1
   130e4:	00ce1b93          	slli	s7,t3,0xc
   130e8:	014e5e13          	srli	t3,t3,0x14
   130ec:	017e4e33          	xor	t3,t3,s7
   130f0:	01c80833          	add	a6,a6,t3
   130f4:	010b4b33          	xor	s6,s6,a6
   130f8:	008b1b93          	slli	s7,s6,0x8
   130fc:	018b5b13          	srli	s6,s6,0x18
   13100:	017b4b33          	xor	s6,s6,s7
   13104:	016484b3          	add	s1,s1,s6
   13108:	009e4e33          	xor	t3,t3,s1
   1310c:	007e1b93          	slli	s7,t3,0x7
   13110:	019e5e13          	srli	t3,t3,0x19
   13114:	017e4e33          	xor	t3,t3,s7
   13118:	01d888b3          	add	a7,a7,t4
   1311c:	0119c9b3          	xor	s3,s3,a7
   13120:	01099b93          	slli	s7,s3,0x10
   13124:	0109d993          	srli	s3,s3,0x10
   13128:	0179c9b3          	xor	s3,s3,s7
   1312c:	01390933          	add	s2,s2,s3
   13130:	012eceb3          	xor	t4,t4,s2
   13134:	00ce9b93          	slli	s7,t4,0xc
   13138:	014ede93          	srli	t4,t4,0x14
   1313c:	017eceb3          	xor	t4,t4,s7
   13140:	01d888b3          	add	a7,a7,t4
   13144:	0119c9b3          	xor	s3,s3,a7
   13148:	00899b93          	slli	s7,s3,0x8
   1314c:	0189d993          	srli	s3,s3,0x18
   13150:	0179c9b3          	xor	s3,s3,s7
   13154:	01390933          	add	s2,s2,s3
   13158:	012eceb3          	xor	t4,t4,s2
   1315c:	007e9b93          	slli	s7,t4,0x7
   13160:	019ede93          	srli	t4,t4,0x19
   13164:	017eceb3          	xor	t4,t4,s7
   13168:	01e282b3          	add	t0,t0,t5
   1316c:	005a4a33          	xor	s4,s4,t0
   13170:	010a1b93          	slli	s7,s4,0x10
   13174:	010a5a13          	srli	s4,s4,0x10
   13178:	017a4a33          	xor	s4,s4,s7
   1317c:	014f8fb3          	add	t6,t6,s4
   13180:	01ff4f33          	xor	t5,t5,t6
   13184:	00cf1b93          	slli	s7,t5,0xc
   13188:	014f5f13          	srli	t5,t5,0x14
   1318c:	017f4f33          	xor	t5,t5,s7
   13190:	01e282b3          	add	t0,t0,t5
   13194:	005a4a33          	xor	s4,s4,t0
   13198:	008a1b93          	slli	s7,s4,0x8
   1319c:	018a5a13          	srli	s4,s4,0x18
   131a0:	017a4a33          	xor	s4,s4,s7
   131a4:	014f8fb3          	add	t6,t6,s4
   131a8:	01ff4f33          	xor	t5,t5,t6
   131ac:	007f1b93          	slli	s7,t5,0x7
   131b0:	019f5f13          	srli	t5,t5,0x19
   131b4:	017f4f33          	xor	t5,t5,s7
   131b8:	00730333          	add	t1,t1,t2
   131bc:	006acab3          	xor	s5,s5,t1
   131c0:	010a9b93          	slli	s7,s5,0x10
   131c4:	010ada93          	srli	s5,s5,0x10
   131c8:	017acab3          	xor	s5,s5,s7
   131cc:	01540433          	add	s0,s0,s5
   131d0:	0083c3b3          	xor	t2,t2,s0
   131d4:	00c39b93          	slli	s7,t2,0xc
   131d8:	0143d393          	srli	t2,t2,0x14
   131dc:	0173c3b3          	xor	t2,t2,s7
   131e0:	00730333          	add	t1,t1,t2
   131e4:	006acab3          	xor	s5,s5,t1
   131e8:	008a9b93          	slli	s7,s5,0x8
   131ec:	018ada93          	srli	s5,s5,0x18
   131f0:	017acab3          	xor	s5,s5,s7
   131f4:	01540433          	add	s0,s0,s5
   131f8:	0083c3b3          	xor	t2,t2,s0
   131fc:	00739b93          	slli	s7,t2,0x7
   13200:	0193d393          	srli	t2,t2,0x19
   13204:	0173c3b3          	xor	t2,t2,s7
   13208:	00780833          	add	a6,a6,t2
   1320c:	0109c9b3          	xor	s3,s3,a6
   13210:	01099b93          	slli	s7,s3,0x10
   13214:	0109d993          	srli	s3,s3,0x10
   13218:	0179c9b3          	xor	s3,s3,s7
   1321c:	013f8fb3          	add	t6,t6,s3
   13220:	01f3c3b3          	xor	t2,t2,t6
   13224:	00c39b93          	slli	s7,t2,0xc
   13228:	0143d393          	srli	t2,t2,0x14
   1322c:	0173c3b3          	xor	t2,t2,s7
   13230:	00780833          	add	a6,a6,t2
   13234:	0109c9b3          	xor	s3,s3,a6
   13238:	00899b93          	slli	s7,s3,0x8
   1323c:	0189d993          	srli	s3,s3,0x18
   13240:	0179c9b3          	xor	s3,s3,s7
   13244:	013f8fb3          	add	t6,t6,s3
   13248:	01f3c3b3          	xor	t2,t2,t6
   1324c:	00739b93          	slli	s7,t2,0x7
   13250:	0193d393          	srli	t2,t2,0x19
   13254:	0173c3b3          	xor	t2,t2,s7
   13258:	01c888b3          	add	a7,a7,t3
   1325c:	011a4a33          	xor	s4,s4,a7
   13260:	010a1b93          	slli	s7,s4,0x10
   13264:	010a5a13          	srli	s4,s4,0x10
   13268:	017a4a33          	xor	s4,s4,s7
   1326c:	01440433          	add	s0,s0,s4
   13270:	008e4e33          	xor	t3,t3,s0
   13274:	00ce1b93          	slli	s7,t3,0xc
   13278:	014e5e13          	srli	t3,t3,0x14
   1327c:	017e4e33          	xor	t3,t3,s7
   13280:	01c888b3          	add	a7,a7,t3
   13284:	011a4a33          	xor	s4,s4,a7
   13288:	008a1b93          	slli	s7,s4,0x8
   1328c:	018a5a13          	srli	s4,s4,0x18
   13290:	017a4a33          	xor	s4,s4,s7
   13294:	01440433          	add	s0,s0,s4
   13298:	008e4e33          	xor	t3,t3,s0
   1329c:	007e1b93          	slli	s7,t3,0x7
   132a0:	019e5e13          	srli	t3,t3,0x19
   132a4:	017e4e33          	xor	t3,t3,s7
   132a8:	01d282b3          	add	t0,t0,t4
   132ac:	005acab3          	xor	s5,s5,t0
   132b0:	010a9b93          	slli	s7,s5,0x10
   132b4:	010ada93          	srli	s5,s5,0x10
   132b8:	017acab3          	xor	s5,s5,s7
   132bc:	015484b3          	add	s1,s1,s5
   132c0:	009eceb3          	xor	t4,t4,s1
   132c4:	00ce9b93          	slli	s7,t4,0xc
   132c8:	014ede93          	srli	t4,t4,0x14
   132cc:	017eceb3          	xor	t4,t4,s7
   132d0:	01d282b3          	add	t0,t0,t4
   132d4:	005acab3          	xor	s5,s5,t0
   132d8:	008a9b93          	slli	s7,s5,0x8
   132dc:	018ada93          	srli	s5,s5,0x18
   132e0:	017acab3          	xor	s5,s5,s7
   132e4:	015484b3          	add	s1,s1,s5
   132e8:	009eceb3          	xor	t4,t4,s1
   132ec:	007e9b93          	slli	s7,t4,0x7
   132f0:	019ede93          	srli	t4,t4,0x19
   132f4:	017eceb3          	xor	t4,t4,s7
   132f8:	01e30333          	add	t1,t1,t5
   132fc:	006b4b33          	xor	s6,s6,t1
   13300:	010b1b93          	slli	s7,s6,0x10
   13304:	010b5b13          	srli	s6,s6,0x10
   13308:	017b4b33          	xor	s6,s6,s7
   1330c:	01690933          	add	s2,s2,s6
   13310:	012f4f33          	xor	t5,t5,s2
   13314:	00cf1b93          	slli	s7,t5,0xc
   13318:	014f5f13          	srli	t5,t5,0x14
   1331c:	017f4f33          	xor	t5,t5,s7
   13320:	01e30333          	add	t1,t1,t5
   13324:	006b4b33          	xor	s6,s6,t1
   13328:	008b1b93          	slli	s7,s6,0x8
   1332c:	018b5b13          	srli	s6,s6,0x18
   13330:	017b4b33          	xor	s6,s6,s7
   13334:	01690933          	add	s2,s2,s6
   13338:	012f4f33          	xor	t5,t5,s2
   1333c:	007f1b93          	slli	s7,t5,0x7
   13340:	019f5f13          	srli	t5,t5,0x19
   13344:	017f4f33          	xor	t5,t5,s7
   13348:	01c80833          	add	a6,a6,t3
   1334c:	010b4b33          	xor	s6,s6,a6
   13350:	010b1b93          	slli	s7,s6,0x10
   13354:	010b5b13          	srli	s6,s6,0x10
   13358:	017b4b33          	xor	s6,s6,s7
   1335c:	016484b3          	add	s1,s1,s6
   13360:	009e4e33          	xor	t3,t3,s1
   13364:	00ce1b93          	slli	s7,t3,0xc
   13368:	014e5e13          	srli	t3,t3,0x14
   1336c:	017e4e33          	xor	t3,t3,s7
   13370:	01c80833          	add	a6,a6,t3
   13374:	010b4b33          	xor	s6,s6,a6
   13378:	008b1b93          	slli	s7,s6,0x8
   1337c:	018b5b13          	srli	s6,s6,0x18
   13380:	017b4b33          	xor	s6,s6,s7
   13384:	016484b3          	add	s1,s1,s6
   13388:	009e4e33          	xor	t3,t3,s1
   1338c:	007e1b93          	slli	s7,t3,0x7
   13390:	019e5e13          	srli	t3,t3,0x19
   13394:	017e4e33          	xor	t3,t3,s7
   13398:	01d888b3          	add	a7,a7,t4
   1339c:	0119c9b3          	xor	s3,s3,a7
   133a0:	01099b93          	slli	s7,s3,0x10
   133a4:	0109d993          	srli	s3,s3,0x10
   133a8:	0179c9b3          	xor	s3,s3,s7
   133ac:	01390933          	add	s2,s2,s3
   133b0:	012eceb3          	xor	t4,t4,s2
   133b4:	00ce9b93          	slli	s7,t4,0xc
   133b8:	014ede93          	srli	t4,t4,0x14
   133bc:	017eceb3          	xor	t4,t4,s7
   133c0:	01d888b3          	add	a7,a7,t4
   133c4:	0119c9b3          	xor	s3,s3,a7
   133c8:	00899b93          	slli	s7,s3,0x8
   133cc:	0189d993          	srli	s3,s3,0x18
   133d0:	0179c9b3          	xor	s3,s3,s7
   133d4:	01390933          	add	s2,s2,s3
   133d8:	012eceb3          	xor	t4,t4,s2
   133dc:	007e9b93          	slli	s7,t4,0x7
   133e0:	019ede93          	srli	t4,t4,0x19
   133e4:	017eceb3          	xor	t4,t4,s7
   133e8:	01e282b3          	add	t0,t0,t5
   133ec:	005a4a33          	xor	s4,s4,t0
   133f0:	010a1b93          	slli	s7,s4,0x10
   133f4:	010a5a13          	srli	s4,s4,0x10
   133f8:	017a4a33          	xor	s4,s4,s7
   133fc:	014f8fb3          	add	t6,t6,s4
   13400:	01ff4f33          	xor	t5,t5,t6
   13404:	00cf1b93          	slli	s7,t5,0xc
   13408:	014f5f13          	srli	t5,t5,0x14
   1340c:	017f4f33          	xor	t5,t5,s7
   13410:	01e282b3          	add	t0,t0,t5
   13414:	005a4a33          	xor	s4,s4,t0
   13418:	008a1b93          	slli	s7,s4,0x8
   1341c:	018a5a13          	srli	s4,s4,0x18
   13420:	017a4a33          	xor	s4,s4,s7
   13424:	014f8fb3          	add	t6,t6,s4
   13428:	01ff4f33          	xor	t5,t5,t6
   1342c:	007f1b93          	slli	s7,t5,0x7
   13430:	019f5f13          	srli	t5,t5,0x19
   13434:	017f4f33          	xor	t5,t5,s7
   13438:	00730333          	add	t1,t1,t2
   1343c:	006acab3          	xor	s5,s5,t1
   13440:	010a9b93          	slli	s7,s5,0x10
   13444:	010ada93          	srli	s5,s5,0x10
   13448:	017acab3          	xor	s5,s5,s7
   1344c:	01540433          	add	s0,s0,s5
   13450:	0083c3b3          	xor	t2,t2,s0
   13454:	00c39b93          	slli	s7,t2,0xc
   13458:	0143d393          	srli	t2,t2,0x14
   1345c:	0173c3b3          	xor	t2,t2,s7
   13460:	00730333          	add	t1,t1,t2
   13464:	006acab3          	xor	s5,s5,t1
   13468:	008a9b93          	slli	s7,s5,0x8
   1346c:	018ada93          	srli	s5,s5,0x18
   13470:	017acab3          	xor	s5,s5,s7
   13474:	01540433          	add	s0,s0,s5
   13478:	0083c3b3          	xor	t2,t2,s0
   1347c:	00739b93          	slli	s7,t2,0x7
   13480:	0193d393          	srli	t2,t2,0x19
   13484:	0173c3b3          	xor	t2,t2,s7
   13488:	000c2b83          	lw	s7,0(s8)
   1348c:	004c2c83          	lw	s9,4(s8)
   13490:	01780833          	add	a6,a6,s7
   13494:	019888b3          	add	a7,a7,s9
   13498:	008c2b83          	lw	s7,8(s8)
   1349c:	00cc2c83          	lw	s9,12(s8)
   134a0:	017282b3          	add	t0,t0,s7
   134a4:	01930333          	add	t1,t1,s9
   134a8:	0006ab83          	lw	s7,0(a3)
   134ac:	0046ac83          	lw	s9,4(a3)
   134b0:	017383b3          	add	t2,t2,s7
   134b4:	019e0e33          	add	t3,t3,s9
   134b8:	0086ab83          	lw	s7,8(a3)
   134bc:	00c6ac83          	lw	s9,12(a3)
   134c0:	017e8eb3          	add	t4,t4,s7
   134c4:	019f0f33          	add	t5,t5,s9
   134c8:	0106ab83          	lw	s7,16(a3)
   134cc:	0146ac83          	lw	s9,20(a3)
   134d0:	017f8fb3          	add	t6,t6,s7
   134d4:	01940433          	add	s0,s0,s9
   134d8:	0186ab83          	lw	s7,24(a3)
   134dc:	01c6ac83          	lw	s9,28(a3)
   134e0:	017484b3          	add	s1,s1,s7
   134e4:	01990933          	add	s2,s2,s9
   134e8:	00f989b3          	add	s3,s3,a5
   134ec:	00072b83          	lw	s7,0(a4)
   134f0:	00472c83          	lw	s9,4(a4)
   134f4:	017a0a33          	add	s4,s4,s7
   134f8:	00872b83          	lw	s7,8(a4)
   134fc:	019a8ab3          	add	s5,s5,s9
   13500:	017b0b33          	add	s6,s6,s7
   13504:	00400693          	li	a3,4
   13508:	00001717          	auipc	a4,0x1
   1350c:	42070713          	addi	a4,a4,1056 # 14928 <chacha20masks>
   13510:	00d64c63          	blt	a2,a3,13528 <chacha20+0x34c0>
   13514:	0005ab83          	lw	s7,0(a1)
   13518:	ffc60613          	addi	a2,a2,-4
   1351c:	01784833          	xor	a6,a6,s7
   13520:	01052023          	sw	a6,0(a0)
   13524:	0280006f          	j	1354c <chacha20+0x34e4>
   13528:	36c05663          	blez	a2,13894 <chacha20+0x382c>
   1352c:	00261613          	slli	a2,a2,0x2
   13530:	00e60633          	add	a2,a2,a4
   13534:	0005ab83          	lw	s7,0(a1)
   13538:	00062c03          	lw	s8,0(a2)
   1353c:	01784833          	xor	a6,a6,s7
   13540:	01887833          	and	a6,a6,s8
   13544:	01052023          	sw	a6,0(a0)
   13548:	34c0006f          	j	13894 <chacha20+0x382c>
   1354c:	00d64c63          	blt	a2,a3,13564 <chacha20+0x34fc>
   13550:	0045ab83          	lw	s7,4(a1)
   13554:	ffc60613          	addi	a2,a2,-4
   13558:	0178c8b3          	xor	a7,a7,s7
   1355c:	01152223          	sw	a7,4(a0)
   13560:	0280006f          	j	13588 <chacha20+0x3520>
   13564:	32c05863          	blez	a2,13894 <chacha20+0x382c>
   13568:	00261613          	slli	a2,a2,0x2
   1356c:	00e60633          	add	a2,a2,a4
   13570:	0045ab83          	lw	s7,4(a1)
   13574:	00062c03          	lw	s8,0(a2)
   13578:	0178c8b3          	xor	a7,a7,s7
   1357c:	0188f8b3          	and	a7,a7,s8
   13580:	01152223          	sw	a7,4(a0)
   13584:	3100006f          	j	13894 <chacha20+0x382c>
   13588:	00d64c63          	blt	a2,a3,135a0 <chacha20+0x3538>
   1358c:	0085ab83          	lw	s7,8(a1)
   13590:	ffc60613          	addi	a2,a2,-4
   13594:	0172c2b3          	xor	t0,t0,s7
   13598:	00552423          	sw	t0,8(a0)
   1359c:	0280006f          	j	135c4 <chacha20+0x355c>
   135a0:	2ec05a63          	blez	a2,13894 <chacha20+0x382c>
   135a4:	00261613          	slli	a2,a2,0x2
   135a8:	00e60633          	add	a2,a2,a4
   135ac:	0085ab83          	lw	s7,8(a1)
   135b0:	00062c03          	lw	s8,0(a2)
   135b4:	0172c2b3          	xor	t0,t0,s7
   135b8:	0182f2b3          	and	t0,t0,s8
   135bc:	00552423          	sw	t0,8(a0)
   135c0:	2d40006f          	j	13894 <chacha20+0x382c>
   135c4:	00d64c63          	blt	a2,a3,135dc <chacha20+0x3574>
   135c8:	00c5ab83          	lw	s7,12(a1)
   135cc:	ffc60613          	addi	a2,a2,-4
   135d0:	01734333          	xor	t1,t1,s7
   135d4:	00652623          	sw	t1,12(a0)
   135d8:	0280006f          	j	13600 <chacha20+0x3598>
   135dc:	2ac05c63          	blez	a2,13894 <chacha20+0x382c>
   135e0:	00261613          	slli	a2,a2,0x2
   135e4:	00e60633          	add	a2,a2,a4
   135e8:	00c5ab83          	lw	s7,12(a1)
   135ec:	00062c03          	lw	s8,0(a2)
   135f0:	01734333          	xor	t1,t1,s7
   135f4:	01837333          	and	t1,t1,s8
   135f8:	00652623          	sw	t1,12(a0)
   135fc:	2980006f          	j	13894 <chacha20+0x382c>
   13600:	00d64c63          	blt	a2,a3,13618 <chacha20+0x35b0>
   13604:	0105ab83          	lw	s7,16(a1)
   13608:	ffc60613          	addi	a2,a2,-4
   1360c:	0173c3b3          	xor	t2,t2,s7
   13610:	00752823          	sw	t2,16(a0)
   13614:	0280006f          	j	1363c <chacha20+0x35d4>
   13618:	26c05e63          	blez	a2,13894 <chacha20+0x382c>
   1361c:	00261613          	slli	a2,a2,0x2
   13620:	00e60633          	add	a2,a2,a4
   13624:	0105ab83          	lw	s7,16(a1)
   13628:	00062c03          	lw	s8,0(a2)
   1362c:	0173c3b3          	xor	t2,t2,s7
   13630:	0183f3b3          	and	t2,t2,s8
   13634:	00752823          	sw	t2,16(a0)
   13638:	25c0006f          	j	13894 <chacha20+0x382c>
   1363c:	00d64c63          	blt	a2,a3,13654 <chacha20+0x35ec>
   13640:	0145ab83          	lw	s7,20(a1)
   13644:	ffc60613          	addi	a2,a2,-4
   13648:	017e4e33          	xor	t3,t3,s7
   1364c:	01c52a23          	sw	t3,20(a0)
   13650:	0280006f          	j	13678 <chacha20+0x3610>
   13654:	24c05063          	blez	a2,13894 <chacha20+0x382c>
   13658:	00261613          	slli	a2,a2,0x2
   1365c:	00e60633          	add	a2,a2,a4
   13660:	0145ab83          	lw	s7,20(a1)
   13664:	00062c03          	lw	s8,0(a2)
   13668:	017e4e33          	xor	t3,t3,s7
   1366c:	018e7e33          	and	t3,t3,s8
   13670:	01c52a23          	sw	t3,20(a0)
   13674:	2200006f          	j	13894 <chacha20+0x382c>
   13678:	00d64c63          	blt	a2,a3,13690 <chacha20+0x3628>
   1367c:	0185ab83          	lw	s7,24(a1)
   13680:	ffc60613          	addi	a2,a2,-4
   13684:	017eceb3          	xor	t4,t4,s7
   13688:	01d52c23          	sw	t4,24(a0)
   1368c:	0280006f          	j	136b4 <chacha20+0x364c>
   13690:	20c05263          	blez	a2,13894 <chacha20+0x382c>
   13694:	00261613          	slli	a2,a2,0x2
   13698:	00e60633          	add	a2,a2,a4
   1369c:	0185ab83          	lw	s7,24(a1)
   136a0:	00062c03          	lw	s8,0(a2)
   136a4:	017eceb3          	xor	t4,t4,s7
   136a8:	018efeb3          	and	t4,t4,s8
   136ac:	01d52c23          	sw	t4,24(a0)
   136b0:	1e40006f          	j	13894 <chacha20+0x382c>
   136b4:	00d64c63          	blt	a2,a3,136cc <chacha20+0x3664>
   136b8:	01c5ab83          	lw	s7,28(a1)
   136bc:	ffc60613          	addi	a2,a2,-4
   136c0:	017f4f33          	xor	t5,t5,s7
   136c4:	01e52e23          	sw	t5,28(a0)
   136c8:	0280006f          	j	136f0 <chacha20+0x3688>
   136cc:	1cc05463          	blez	a2,13894 <chacha20+0x382c>
   136d0:	00261613          	slli	a2,a2,0x2
   136d4:	00e60633          	add	a2,a2,a4
   136d8:	01c5ab83          	lw	s7,28(a1)
   136dc:	00062c03          	lw	s8,0(a2)
   136e0:	017f4f33          	xor	t5,t5,s7
   136e4:	018f7f33          	and	t5,t5,s8
   136e8:	01e52e23          	sw	t5,28(a0)
   136ec:	1a80006f          	j	13894 <chacha20+0x382c>
   136f0:	00d64c63          	blt	a2,a3,13708 <chacha20+0x36a0>
   136f4:	0205ab83          	lw	s7,32(a1)
   136f8:	ffc60613          	addi	a2,a2,-4
   136fc:	017fcfb3          	xor	t6,t6,s7
   13700:	03f52023          	sw	t6,32(a0)
   13704:	0280006f          	j	1372c <chacha20+0x36c4>
   13708:	18c05663          	blez	a2,13894 <chacha20+0x382c>
   1370c:	00261613          	slli	a2,a2,0x2
   13710:	00e60633          	add	a2,a2,a4
   13714:	0205ab83          	lw	s7,32(a1)
   13718:	00062c03          	lw	s8,0(a2)
   1371c:	017fcfb3          	xor	t6,t6,s7
   13720:	018fffb3          	and	t6,t6,s8
   13724:	03f52023          	sw	t6,32(a0)
   13728:	16c0006f          	j	13894 <chacha20+0x382c>
   1372c:	00d64c63          	blt	a2,a3,13744 <chacha20+0x36dc>
   13730:	0245ab83          	lw	s7,36(a1)
   13734:	ffc60613          	addi	a2,a2,-4
   13738:	01744433          	xor	s0,s0,s7
   1373c:	02852223          	sw	s0,36(a0)
   13740:	0280006f          	j	13768 <chacha20+0x3700>
   13744:	14c05863          	blez	a2,13894 <chacha20+0x382c>
   13748:	00261613          	slli	a2,a2,0x2
   1374c:	00e60633          	add	a2,a2,a4
   13750:	0245ab83          	lw	s7,36(a1)
   13754:	00062c03          	lw	s8,0(a2)
   13758:	01744433          	xor	s0,s0,s7
   1375c:	01847433          	and	s0,s0,s8
   13760:	02852223          	sw	s0,36(a0)
   13764:	1300006f          	j	13894 <chacha20+0x382c>
   13768:	00d64c63          	blt	a2,a3,13780 <chacha20+0x3718>
   1376c:	0285ab83          	lw	s7,40(a1)
   13770:	ffc60613          	addi	a2,a2,-4
   13774:	0174c4b3          	xor	s1,s1,s7
   13778:	02952423          	sw	s1,40(a0)
   1377c:	0280006f          	j	137a4 <chacha20+0x373c>
   13780:	10c05a63          	blez	a2,13894 <chacha20+0x382c>
   13784:	00261613          	slli	a2,a2,0x2
   13788:	00e60633          	add	a2,a2,a4
   1378c:	0285ab83          	lw	s7,40(a1)
   13790:	00062c03          	lw	s8,0(a2)
   13794:	0174c4b3          	xor	s1,s1,s7
   13798:	0184f4b3          	and	s1,s1,s8
   1379c:	02952423          	sw	s1,40(a0)
   137a0:	0f40006f          	j	13894 <chacha20+0x382c>
   137a4:	00d64c63          	blt	a2,a3,137bc <chacha20+0x3754>
   137a8:	02c5ab83          	lw	s7,44(a1)
   137ac:	ffc60613          	addi	a2,a2,-4
   137b0:	01794933          	xor	s2,s2,s7
   137b4:	03252623          	sw	s2,44(a0)
   137b8:	0280006f          	j	137e0 <chacha20+0x3778>
   137bc:	0cc05c63          	blez	a2,13894 <chacha20+0x382c>
   137c0:	00261613          	slli	a2,a2,0x2
   137c4:	00e60633          	add	a2,a2,a4
   137c8:	02c5ab83          	lw	s7,44(a1)
   137cc:	00062c03          	lw	s8,0(a2)
   137d0:	01794933          	xor	s2,s2,s7
   137d4:	01897933          	and	s2,s2,s8
   137d8:	03252623          	sw	s2,44(a0)
   137dc:	0b80006f          	j	13894 <chacha20+0x382c>
   137e0:	00d64c63          	blt	a2,a3,137f8 <chacha20+0x3790>
   137e4:	0305ab83          	lw	s7,48(a1)
   137e8:	ffc60613          	addi	a2,a2,-4
   137ec:	0179c9b3          	xor	s3,s3,s7
   137f0:	03352823          	sw	s3,48(a0)
   137f4:	0280006f          	j	1381c <chacha20+0x37b4>
   137f8:	08c05e63          	blez	a2,13894 <chacha20+0x382c>
   137fc:	00261613          	slli	a2,a2,0x2
   13800:	00e60633          	add	a2,a2,a4
   13804:	0305ab83          	lw	s7,48(a1)
   13808:	00062c03          	lw	s8,0(a2)
   1380c:	0179c9b3          	xor	s3,s3,s7
   13810:	0189f9b3          	and	s3,s3,s8
   13814:	03352823          	sw	s3,48(a0)
   13818:	07c0006f          	j	13894 <chacha20+0x382c>
   1381c:	00d64c63          	blt	a2,a3,13834 <chacha20+0x37cc>
   13820:	0345ab83          	lw	s7,52(a1)
   13824:	ffc60613          	addi	a2,a2,-4
   13828:	017a4a33          	xor	s4,s4,s7
   1382c:	03452a23          	sw	s4,52(a0)
   13830:	0280006f          	j	13858 <chacha20+0x37f0>
   13834:	06c05063          	blez	a2,13894 <chacha20+0x382c>
   13838:	00261613          	slli	a2,a2,0x2
   1383c:	00e60633          	add	a2,a2,a4
   13840:	0345ab83          	lw	s7,52(a1)
   13844:	00062c03          	lw	s8,0(a2)
   13848:	017a4a33          	xor	s4,s4,s7
   1384c:	018a7a33          	and	s4,s4,s8
   13850:	03452a23          	sw	s4,52(a0)
   13854:	0400006f          	j	13894 <chacha20+0x382c>
   13858:	00d64c63          	blt	a2,a3,13870 <chacha20+0x3808>
   1385c:	0385ab83          	lw	s7,56(a1)
   13860:	ffc60613          	addi	a2,a2,-4
   13864:	017acab3          	xor	s5,s5,s7
   13868:	03552c23          	sw	s5,56(a0)
   1386c:	0280006f          	j	13894 <chacha20+0x382c>
   13870:	02c05263          	blez	a2,13894 <chacha20+0x382c>
   13874:	00261613          	slli	a2,a2,0x2
   13878:	00e60633          	add	a2,a2,a4
   1387c:	0385ab83          	lw	s7,56(a1)
   13880:	00062c03          	lw	s8,0(a2)
   13884:	017acab3          	xor	s5,s5,s7
   13888:	018afab3          	and	s5,s5,s8
   1388c:	03552c23          	sw	s5,56(a0)
   13890:	0040006f          	j	13894 <chacha20+0x382c>
   13894:	00412403          	lw	s0,4(sp)
   13898:	00812483          	lw	s1,8(sp)
   1389c:	00c12903          	lw	s2,12(sp)
   138a0:	01012983          	lw	s3,16(sp)
   138a4:	01412a03          	lw	s4,20(sp)
   138a8:	01812a83          	lw	s5,24(sp)
   138ac:	01c12b03          	lw	s6,28(sp)
   138b0:	02012b83          	lw	s7,32(sp)
   138b4:	02412c03          	lw	s8,36(sp)
   138b8:	02812c83          	lw	s9,40(sp)
   138bc:	02c10113          	addi	sp,sp,44
   138c0:	00008067          	ret

000138c4 <memcpy>:
   138c4:	fd010113          	addi	sp,sp,-48
   138c8:	02112623          	sw	ra,44(sp)
   138cc:	02812423          	sw	s0,40(sp)
   138d0:	03010413          	addi	s0,sp,48
   138d4:	fca42e23          	sw	a0,-36(s0)
   138d8:	fcb42c23          	sw	a1,-40(s0)
   138dc:	fcc42a23          	sw	a2,-44(s0)
   138e0:	fdc42783          	lw	a5,-36(s0)
   138e4:	fef42623          	sw	a5,-20(s0)
   138e8:	fd842783          	lw	a5,-40(s0)
   138ec:	fef42423          	sw	a5,-24(s0)
   138f0:	0240006f          	j	13914 <memcpy+0x50>
   138f4:	fe842703          	lw	a4,-24(s0)
   138f8:	00170793          	addi	a5,a4,1
   138fc:	fef42423          	sw	a5,-24(s0)
   13900:	fec42783          	lw	a5,-20(s0)
   13904:	00178693          	addi	a3,a5,1
   13908:	fed42623          	sw	a3,-20(s0)
   1390c:	00074703          	lbu	a4,0(a4)
   13910:	00e78023          	sb	a4,0(a5)
   13914:	fd442783          	lw	a5,-44(s0)
   13918:	fff78713          	addi	a4,a5,-1
   1391c:	fce42a23          	sw	a4,-44(s0)
   13920:	fc079ae3          	bnez	a5,138f4 <memcpy+0x30>
   13924:	fdc42783          	lw	a5,-36(s0)
   13928:	00078513          	mv	a0,a5
   1392c:	02c12083          	lw	ra,44(sp)
   13930:	02812403          	lw	s0,40(sp)
   13934:	03010113          	addi	sp,sp,48
   13938:	00008067          	ret

0001393c <udiv>:
   1393c:	fd010113          	addi	sp,sp,-48
   13940:	02112623          	sw	ra,44(sp)
   13944:	02812423          	sw	s0,40(sp)
   13948:	03010413          	addi	s0,sp,48
   1394c:	fca42e23          	sw	a0,-36(s0)
   13950:	fcb42c23          	sw	a1,-40(s0)
   13954:	fd842783          	lw	a5,-40(s0)
   13958:	00079663          	bnez	a5,13964 <udiv+0x28>
   1395c:	00000793          	li	a5,0
   13960:	08c0006f          	j	139ec <udiv+0xb0>
   13964:	fe042623          	sw	zero,-20(s0)
   13968:	fe042423          	sw	zero,-24(s0)
   1396c:	01f00793          	li	a5,31
   13970:	fef42223          	sw	a5,-28(s0)
   13974:	06c0006f          	j	139e0 <udiv+0xa4>
   13978:	fe842783          	lw	a5,-24(s0)
   1397c:	00179793          	slli	a5,a5,0x1
   13980:	fef42423          	sw	a5,-24(s0)
   13984:	fe442783          	lw	a5,-28(s0)
   13988:	fdc42703          	lw	a4,-36(s0)
   1398c:	00f757b3          	srl	a5,a4,a5
   13990:	0017f793          	andi	a5,a5,1
   13994:	fe842703          	lw	a4,-24(s0)
   13998:	00f767b3          	or	a5,a4,a5
   1399c:	fef42423          	sw	a5,-24(s0)
   139a0:	fe842703          	lw	a4,-24(s0)
   139a4:	fd842783          	lw	a5,-40(s0)
   139a8:	02f76663          	bltu	a4,a5,139d4 <udiv+0x98>
   139ac:	fe842703          	lw	a4,-24(s0)
   139b0:	fd842783          	lw	a5,-40(s0)
   139b4:	40f707b3          	sub	a5,a4,a5
   139b8:	fef42423          	sw	a5,-24(s0)
   139bc:	fe442783          	lw	a5,-28(s0)
   139c0:	00100713          	li	a4,1
   139c4:	00f717b3          	sll	a5,a4,a5
   139c8:	fec42703          	lw	a4,-20(s0)
   139cc:	00f767b3          	or	a5,a4,a5
   139d0:	fef42623          	sw	a5,-20(s0)
   139d4:	fe442783          	lw	a5,-28(s0)
   139d8:	fff78793          	addi	a5,a5,-1
   139dc:	fef42223          	sw	a5,-28(s0)
   139e0:	fe442783          	lw	a5,-28(s0)
   139e4:	f807dae3          	bgez	a5,13978 <udiv+0x3c>
   139e8:	fec42783          	lw	a5,-20(s0)
   139ec:	00078513          	mv	a0,a5
   139f0:	02c12083          	lw	ra,44(sp)
   139f4:	02812403          	lw	s0,40(sp)
   139f8:	03010113          	addi	sp,sp,48
   139fc:	00008067          	ret

00013a00 <umod>:
   13a00:	fd010113          	addi	sp,sp,-48
   13a04:	02112623          	sw	ra,44(sp)
   13a08:	02812423          	sw	s0,40(sp)
   13a0c:	03010413          	addi	s0,sp,48
   13a10:	fca42e23          	sw	a0,-36(s0)
   13a14:	fcb42c23          	sw	a1,-40(s0)
   13a18:	fd842783          	lw	a5,-40(s0)
   13a1c:	00079663          	bnez	a5,13a28 <umod+0x28>
   13a20:	00000793          	li	a5,0
   13a24:	0700006f          	j	13a94 <umod+0x94>
   13a28:	fe042623          	sw	zero,-20(s0)
   13a2c:	01f00793          	li	a5,31
   13a30:	fef42423          	sw	a5,-24(s0)
   13a34:	0540006f          	j	13a88 <umod+0x88>
   13a38:	fec42783          	lw	a5,-20(s0)
   13a3c:	00179793          	slli	a5,a5,0x1
   13a40:	fef42623          	sw	a5,-20(s0)
   13a44:	fe842783          	lw	a5,-24(s0)
   13a48:	fdc42703          	lw	a4,-36(s0)
   13a4c:	00f757b3          	srl	a5,a4,a5
   13a50:	0017f793          	andi	a5,a5,1
   13a54:	fec42703          	lw	a4,-20(s0)
   13a58:	00f767b3          	or	a5,a4,a5
   13a5c:	fef42623          	sw	a5,-20(s0)
   13a60:	fec42703          	lw	a4,-20(s0)
   13a64:	fd842783          	lw	a5,-40(s0)
   13a68:	00f76a63          	bltu	a4,a5,13a7c <umod+0x7c>
   13a6c:	fec42703          	lw	a4,-20(s0)
   13a70:	fd842783          	lw	a5,-40(s0)
   13a74:	40f707b3          	sub	a5,a4,a5
   13a78:	fef42623          	sw	a5,-20(s0)
   13a7c:	fe842783          	lw	a5,-24(s0)
   13a80:	fff78793          	addi	a5,a5,-1
   13a84:	fef42423          	sw	a5,-24(s0)
   13a88:	fe842783          	lw	a5,-24(s0)
   13a8c:	fa07d6e3          	bgez	a5,13a38 <umod+0x38>
   13a90:	fec42783          	lw	a5,-20(s0)
   13a94:	00078513          	mv	a0,a5
   13a98:	02c12083          	lw	ra,44(sp)
   13a9c:	02812403          	lw	s0,40(sp)
   13aa0:	03010113          	addi	sp,sp,48
   13aa4:	00008067          	ret

00013aa8 <umul>:
   13aa8:	fd010113          	addi	sp,sp,-48
   13aac:	02112623          	sw	ra,44(sp)
   13ab0:	02812423          	sw	s0,40(sp)
   13ab4:	03010413          	addi	s0,sp,48
   13ab8:	fca42e23          	sw	a0,-36(s0)
   13abc:	fcb42c23          	sw	a1,-40(s0)
   13ac0:	fe042623          	sw	zero,-20(s0)
   13ac4:	0380006f          	j	13afc <umul+0x54>
   13ac8:	fd842783          	lw	a5,-40(s0)
   13acc:	0017f793          	andi	a5,a5,1
   13ad0:	00078a63          	beqz	a5,13ae4 <umul+0x3c>
   13ad4:	fec42703          	lw	a4,-20(s0)
   13ad8:	fdc42783          	lw	a5,-36(s0)
   13adc:	00f707b3          	add	a5,a4,a5
   13ae0:	fef42623          	sw	a5,-20(s0)
   13ae4:	fdc42783          	lw	a5,-36(s0)
   13ae8:	00179793          	slli	a5,a5,0x1
   13aec:	fcf42e23          	sw	a5,-36(s0)
   13af0:	fd842783          	lw	a5,-40(s0)
   13af4:	0017d793          	srli	a5,a5,0x1
   13af8:	fcf42c23          	sw	a5,-40(s0)
   13afc:	fd842783          	lw	a5,-40(s0)
   13b00:	fc0794e3          	bnez	a5,13ac8 <umul+0x20>
   13b04:	fec42783          	lw	a5,-20(s0)
   13b08:	00078513          	mv	a0,a5
   13b0c:	02c12083          	lw	ra,44(sp)
   13b10:	02812403          	lw	s0,40(sp)
   13b14:	03010113          	addi	sp,sp,48
   13b18:	00008067          	ret

00013b1c <__mulsi3>:
   13b1c:	fe010113          	addi	sp,sp,-32
   13b20:	00112e23          	sw	ra,28(sp)
   13b24:	00812c23          	sw	s0,24(sp)
   13b28:	02010413          	addi	s0,sp,32
   13b2c:	fea42623          	sw	a0,-20(s0)
   13b30:	feb42423          	sw	a1,-24(s0)
   13b34:	fe842583          	lw	a1,-24(s0)
   13b38:	fec42503          	lw	a0,-20(s0)
   13b3c:	f6dff0ef          	jal	13aa8 <umul>
   13b40:	00050793          	mv	a5,a0
   13b44:	00078513          	mv	a0,a5
   13b48:	01c12083          	lw	ra,28(sp)
   13b4c:	01812403          	lw	s0,24(sp)
   13b50:	02010113          	addi	sp,sp,32
   13b54:	00008067          	ret

00013b58 <print_hex>:
   13b58:	fc010113          	addi	sp,sp,-64
   13b5c:	02112e23          	sw	ra,60(sp)
   13b60:	02812c23          	sw	s0,56(sp)
   13b64:	04010413          	addi	s0,sp,64
   13b68:	fca42623          	sw	a0,-52(s0)
   13b6c:	fd440793          	addi	a5,s0,-44
   13b70:	01378793          	addi	a5,a5,19
   13b74:	fef42623          	sw	a5,-20(s0)
   13b78:	fec42783          	lw	a5,-20(s0)
   13b7c:	00a00713          	li	a4,10
   13b80:	00e78023          	sb	a4,0(a5)
   13b84:	fec42783          	lw	a5,-20(s0)
   13b88:	fff78793          	addi	a5,a5,-1
   13b8c:	fef42623          	sw	a5,-20(s0)
   13b90:	fcc42783          	lw	a5,-52(s0)
   13b94:	06079e63          	bnez	a5,13c10 <print_hex+0xb8>
   13b98:	fec42783          	lw	a5,-20(s0)
   13b9c:	03000713          	li	a4,48
   13ba0:	00e78023          	sb	a4,0(a5)
   13ba4:	fec42783          	lw	a5,-20(s0)
   13ba8:	fff78793          	addi	a5,a5,-1
   13bac:	fef42623          	sw	a5,-20(s0)
   13bb0:	0680006f          	j	13c18 <print_hex+0xc0>
   13bb4:	fcc42783          	lw	a5,-52(s0)
   13bb8:	00f7f793          	andi	a5,a5,15
   13bbc:	fef42423          	sw	a5,-24(s0)
   13bc0:	fe842703          	lw	a4,-24(s0)
   13bc4:	00900793          	li	a5,9
   13bc8:	00e7cc63          	blt	a5,a4,13be0 <print_hex+0x88>
   13bcc:	fe842783          	lw	a5,-24(s0)
   13bd0:	0ff7f793          	zext.b	a5,a5
   13bd4:	03078793          	addi	a5,a5,48
   13bd8:	0ff7f793          	zext.b	a5,a5
   13bdc:	0140006f          	j	13bf0 <print_hex+0x98>
   13be0:	fe842783          	lw	a5,-24(s0)
   13be4:	0ff7f793          	zext.b	a5,a5
   13be8:	05778793          	addi	a5,a5,87
   13bec:	0ff7f793          	zext.b	a5,a5
   13bf0:	fec42703          	lw	a4,-20(s0)
   13bf4:	00f70023          	sb	a5,0(a4)
   13bf8:	fec42783          	lw	a5,-20(s0)
   13bfc:	fff78793          	addi	a5,a5,-1
   13c00:	fef42623          	sw	a5,-20(s0)
   13c04:	fcc42783          	lw	a5,-52(s0)
   13c08:	0047d793          	srli	a5,a5,0x4
   13c0c:	fcf42623          	sw	a5,-52(s0)
   13c10:	fcc42783          	lw	a5,-52(s0)
   13c14:	fa0790e3          	bnez	a5,13bb4 <print_hex+0x5c>
   13c18:	fec42783          	lw	a5,-20(s0)
   13c1c:	00178793          	addi	a5,a5,1
   13c20:	fef42623          	sw	a5,-20(s0)
   13c24:	fd440793          	addi	a5,s0,-44
   13c28:	01478793          	addi	a5,a5,20
   13c2c:	fec42703          	lw	a4,-20(s0)
   13c30:	40e78733          	sub	a4,a5,a4
   13c34:	fec42783          	lw	a5,-20(s0)
   13c38:	00078593          	mv	a1,a5
   13c3c:	00070613          	mv	a2,a4
   13c40:	00100513          	li	a0,1
   13c44:	04000893          	li	a7,64
   13c48:	00000073          	ecall
   13c4c:	00000013          	nop
   13c50:	03c12083          	lw	ra,60(sp)
   13c54:	03812403          	lw	s0,56(sp)
   13c58:	04010113          	addi	sp,sp,64
   13c5c:	00008067          	ret

00013c60 <print_dec>:
   13c60:	fc010113          	addi	sp,sp,-64
   13c64:	02112e23          	sw	ra,60(sp)
   13c68:	02812c23          	sw	s0,56(sp)
   13c6c:	04010413          	addi	s0,sp,64
   13c70:	fca42623          	sw	a0,-52(s0)
   13c74:	fd840793          	addi	a5,s0,-40
   13c78:	01378793          	addi	a5,a5,19
   13c7c:	fef42623          	sw	a5,-20(s0)
   13c80:	fec42783          	lw	a5,-20(s0)
   13c84:	00a00713          	li	a4,10
   13c88:	00e78023          	sb	a4,0(a5)
   13c8c:	fec42783          	lw	a5,-20(s0)
   13c90:	fff78793          	addi	a5,a5,-1
   13c94:	fef42623          	sw	a5,-20(s0)
   13c98:	fcc42783          	lw	a5,-52(s0)
   13c9c:	06079063          	bnez	a5,13cfc <print_dec+0x9c>
   13ca0:	fec42783          	lw	a5,-20(s0)
   13ca4:	03000713          	li	a4,48
   13ca8:	00e78023          	sb	a4,0(a5)
   13cac:	fec42783          	lw	a5,-20(s0)
   13cb0:	fff78793          	addi	a5,a5,-1
   13cb4:	fef42623          	sw	a5,-20(s0)
   13cb8:	04c0006f          	j	13d04 <print_dec+0xa4>
   13cbc:	00a00593          	li	a1,10
   13cc0:	fcc42503          	lw	a0,-52(s0)
   13cc4:	d3dff0ef          	jal	13a00 <umod>
   13cc8:	00050793          	mv	a5,a0
   13ccc:	0ff7f793          	zext.b	a5,a5
   13cd0:	03078793          	addi	a5,a5,48
   13cd4:	0ff7f713          	zext.b	a4,a5
   13cd8:	fec42783          	lw	a5,-20(s0)
   13cdc:	00e78023          	sb	a4,0(a5)
   13ce0:	fec42783          	lw	a5,-20(s0)
   13ce4:	fff78793          	addi	a5,a5,-1
   13ce8:	fef42623          	sw	a5,-20(s0)
   13cec:	00a00593          	li	a1,10
   13cf0:	fcc42503          	lw	a0,-52(s0)
   13cf4:	c49ff0ef          	jal	1393c <udiv>
   13cf8:	fca42623          	sw	a0,-52(s0)
   13cfc:	fcc42783          	lw	a5,-52(s0)
   13d00:	fa079ee3          	bnez	a5,13cbc <print_dec+0x5c>
   13d04:	fec42783          	lw	a5,-20(s0)
   13d08:	00178793          	addi	a5,a5,1
   13d0c:	fef42623          	sw	a5,-20(s0)
   13d10:	fd840793          	addi	a5,s0,-40
   13d14:	01478793          	addi	a5,a5,20
   13d18:	fec42703          	lw	a4,-20(s0)
   13d1c:	40e78733          	sub	a4,a5,a4
   13d20:	fec42783          	lw	a5,-20(s0)
   13d24:	00078593          	mv	a1,a5
   13d28:	00070613          	mv	a2,a4
   13d2c:	00100513          	li	a0,1
   13d30:	04000893          	li	a7,64
   13d34:	00000073          	ecall
   13d38:	00000013          	nop
   13d3c:	03c12083          	lw	ra,60(sp)
   13d40:	03812403          	lw	s0,56(sp)
   13d44:	04010113          	addi	sp,sp,64
   13d48:	00008067          	ret

00013d4c <newton_step>:
   13d4c:	fb010113          	addi	sp,sp,-80
   13d50:	04112623          	sw	ra,76(sp)
   13d54:	04812423          	sw	s0,72(sp)
   13d58:	05212223          	sw	s2,68(sp)
   13d5c:	05312023          	sw	s3,64(sp)
   13d60:	03412e23          	sw	s4,60(sp)
   13d64:	03512c23          	sw	s5,56(sp)
   13d68:	03612a23          	sw	s6,52(sp)
   13d6c:	03712823          	sw	s7,48(sp)
   13d70:	03812623          	sw	s8,44(sp)
   13d74:	03912423          	sw	s9,40(sp)
   13d78:	03a12223          	sw	s10,36(sp)
   13d7c:	03b12023          	sw	s11,32(sp)
   13d80:	05010413          	addi	s0,sp,80
   13d84:	faa42e23          	sw	a0,-68(s0)
   13d88:	fab42c23          	sw	a1,-72(s0)
   13d8c:	fbc42583          	lw	a1,-68(s0)
   13d90:	0005a583          	lw	a1,0(a1)
   13d94:	fcb42623          	sw	a1,-52(s0)
   13d98:	fcc42583          	lw	a1,-52(s0)
   13d9c:	00058713          	mv	a4,a1
   13da0:	00000793          	li	a5,0
   13da4:	fcc42583          	lw	a1,-52(s0)
   13da8:	00058613          	mv	a2,a1
   13dac:	00000693          	li	a3,0
   13db0:	00070513          	mv	a0,a4
   13db4:	00078593          	mv	a1,a5
   13db8:	0b5000ef          	jal	1466c <__muldi3>
   13dbc:	00050713          	mv	a4,a0
   13dc0:	00058793          	mv	a5,a1
   13dc4:	0007da13          	srli	s4,a5,0x0
   13dc8:	00000a93          	li	s5,0
   13dcc:	fd442423          	sw	s4,-56(s0)
   13dd0:	fb842783          	lw	a5,-72(s0)
   13dd4:	00078c13          	mv	s8,a5
   13dd8:	00000c93          	li	s9,0
   13ddc:	fc842783          	lw	a5,-56(s0)
   13de0:	00078d13          	mv	s10,a5
   13de4:	00000d93          	li	s11,0
   13de8:	000d0613          	mv	a2,s10
   13dec:	000d8693          	mv	a3,s11
   13df0:	000c0513          	mv	a0,s8
   13df4:	000c8593          	mv	a1,s9
   13df8:	075000ef          	jal	1466c <__muldi3>
   13dfc:	00050713          	mv	a4,a0
   13e00:	00058793          	mv	a5,a1
   13e04:	00070513          	mv	a0,a4
   13e08:	00078593          	mv	a1,a5
   13e0c:	00000613          	li	a2,0
   13e10:	00300693          	li	a3,3
   13e14:	40a60733          	sub	a4,a2,a0
   13e18:	00070813          	mv	a6,a4
   13e1c:	01063833          	sltu	a6,a2,a6
   13e20:	40b687b3          	sub	a5,a3,a1
   13e24:	410786b3          	sub	a3,a5,a6
   13e28:	00068793          	mv	a5,a3
   13e2c:	fce42023          	sw	a4,-64(s0)
   13e30:	fcf42223          	sw	a5,-60(s0)
   13e34:	fc442783          	lw	a5,-60(s0)
   13e38:	01e79793          	slli	a5,a5,0x1e
   13e3c:	fc042703          	lw	a4,-64(s0)
   13e40:	00275913          	srli	s2,a4,0x2
   13e44:	0127e933          	or	s2,a5,s2
   13e48:	fc442783          	lw	a5,-60(s0)
   13e4c:	0027d993          	srli	s3,a5,0x2
   13e50:	fd242023          	sw	s2,-64(s0)
   13e54:	fd342223          	sw	s3,-60(s0)
   13e58:	fcc42783          	lw	a5,-52(s0)
   13e5c:	00078b13          	mv	s6,a5
   13e60:	00000b93          	li	s7,0
   13e64:	fc042603          	lw	a2,-64(s0)
   13e68:	fc442683          	lw	a3,-60(s0)
   13e6c:	000b0513          	mv	a0,s6
   13e70:	000b8593          	mv	a1,s7
   13e74:	7f8000ef          	jal	1466c <__muldi3>
   13e78:	00050713          	mv	a4,a0
   13e7c:	00058793          	mv	a5,a1
   13e80:	00179693          	slli	a3,a5,0x1
   13e84:	01f75613          	srli	a2,a4,0x1f
   13e88:	00d666b3          	or	a3,a2,a3
   13e8c:	fcd42023          	sw	a3,-64(s0)
   13e90:	01f7d793          	srli	a5,a5,0x1f
   13e94:	fcf42223          	sw	a5,-60(s0)
   13e98:	fc042703          	lw	a4,-64(s0)
   13e9c:	fbc42783          	lw	a5,-68(s0)
   13ea0:	00e7a023          	sw	a4,0(a5)
   13ea4:	00000013          	nop
   13ea8:	04c12083          	lw	ra,76(sp)
   13eac:	04812403          	lw	s0,72(sp)
   13eb0:	04412903          	lw	s2,68(sp)
   13eb4:	04012983          	lw	s3,64(sp)
   13eb8:	03c12a03          	lw	s4,60(sp)
   13ebc:	03812a83          	lw	s5,56(sp)
   13ec0:	03412b03          	lw	s6,52(sp)
   13ec4:	03012b83          	lw	s7,48(sp)
   13ec8:	02c12c03          	lw	s8,44(sp)
   13ecc:	02812c83          	lw	s9,40(sp)
   13ed0:	02412d03          	lw	s10,36(sp)
   13ed4:	02012d83          	lw	s11,32(sp)
   13ed8:	05010113          	addi	sp,sp,80
   13edc:	00008067          	ret

00013ee0 <clz32>:
   13ee0:	fe010113          	addi	sp,sp,-32
   13ee4:	00112e23          	sw	ra,28(sp)
   13ee8:	00812c23          	sw	s0,24(sp)
   13eec:	02010413          	addi	s0,sp,32
   13ef0:	fea42623          	sw	a0,-20(s0)
   13ef4:	fec42503          	lw	a0,-20(s0)
   13ef8:	6ec000ef          	jal	145e4 <__clzsi2>
   13efc:	00050793          	mv	a5,a0
   13f00:	00078513          	mv	a0,a5
   13f04:	01c12083          	lw	ra,28(sp)
   13f08:	01812403          	lw	s0,24(sp)
   13f0c:	02010113          	addi	sp,sp,32
   13f10:	00008067          	ret

00013f14 <fast_rsqrt>:
   13f14:	f5010113          	addi	sp,sp,-176
   13f18:	0a112623          	sw	ra,172(sp)
   13f1c:	0a812423          	sw	s0,168(sp)
   13f20:	0b212223          	sw	s2,164(sp)
   13f24:	0b312023          	sw	s3,160(sp)
   13f28:	09412e23          	sw	s4,156(sp)
   13f2c:	09512c23          	sw	s5,152(sp)
   13f30:	09612a23          	sw	s6,148(sp)
   13f34:	09712823          	sw	s7,144(sp)
   13f38:	09812623          	sw	s8,140(sp)
   13f3c:	09912423          	sw	s9,136(sp)
   13f40:	09a12223          	sw	s10,132(sp)
   13f44:	09b12023          	sw	s11,128(sp)
   13f48:	0b010413          	addi	s0,sp,176
   13f4c:	f8a42623          	sw	a0,-116(s0)
   13f50:	f8c42783          	lw	a5,-116(s0)
   13f54:	00079663          	bnez	a5,13f60 <fast_rsqrt+0x4c>
   13f58:	00000793          	li	a5,0
   13f5c:	2a80006f          	j	14204 <fast_rsqrt+0x2f0>
   13f60:	f8c42503          	lw	a0,-116(s0)
   13f64:	f7dff0ef          	jal	13ee0 <clz32>
   13f68:	00050713          	mv	a4,a0
   13f6c:	01f00793          	li	a5,31
   13f70:	40e787b3          	sub	a5,a5,a4
   13f74:	fcf42223          	sw	a5,-60(s0)
   13f78:	000147b7          	lui	a5,0x14
   13f7c:	70478713          	addi	a4,a5,1796 # 14704 <rsqrt_table>
   13f80:	fc442783          	lw	a5,-60(s0)
   13f84:	00279793          	slli	a5,a5,0x2
   13f88:	00f707b3          	add	a5,a4,a5
   13f8c:	0007a783          	lw	a5,0(a5)
   13f90:	fcf42023          	sw	a5,-64(s0)
   13f94:	fc442703          	lw	a4,-60(s0)
   13f98:	01e00793          	li	a5,30
   13f9c:	02e7c263          	blt	a5,a4,13fc0 <fast_rsqrt+0xac>
   13fa0:	fc442783          	lw	a5,-60(s0)
   13fa4:	00178793          	addi	a5,a5,1
   13fa8:	00014737          	lui	a4,0x14
   13fac:	70470713          	addi	a4,a4,1796 # 14704 <rsqrt_table>
   13fb0:	00279793          	slli	a5,a5,0x2
   13fb4:	00f707b3          	add	a5,a4,a5
   13fb8:	0007a783          	lw	a5,0(a5)
   13fbc:	0080006f          	j	13fc4 <fast_rsqrt+0xb0>
   13fc0:	00000793          	li	a5,0
   13fc4:	faf42e23          	sw	a5,-68(s0)
   13fc8:	f8c42783          	lw	a5,-116(s0)
   13fcc:	f8f42023          	sw	a5,-128(s0)
   13fd0:	f8042223          	sw	zero,-124(s0)
   13fd4:	fc442783          	lw	a5,-60(s0)
   13fd8:	fe078793          	addi	a5,a5,-32
   13fdc:	0007ca63          	bltz	a5,13ff0 <fast_rsqrt+0xdc>
   13fe0:	00100713          	li	a4,1
   13fe4:	00f71cb3          	sll	s9,a4,a5
   13fe8:	00000c13          	li	s8,0
   13fec:	0140006f          	j	14000 <fast_rsqrt+0xec>
   13ff0:	00000c93          	li	s9,0
   13ff4:	fc442783          	lw	a5,-60(s0)
   13ff8:	00100713          	li	a4,1
   13ffc:	00f71c33          	sll	s8,a4,a5
   14000:	f8042503          	lw	a0,-128(s0)
   14004:	f8442583          	lw	a1,-124(s0)
   14008:	00050693          	mv	a3,a0
   1400c:	41868733          	sub	a4,a3,s8
   14010:	00070693          	mv	a3,a4
   14014:	00050613          	mv	a2,a0
   14018:	00d636b3          	sltu	a3,a2,a3
   1401c:	00058613          	mv	a2,a1
   14020:	419607b3          	sub	a5,a2,s9
   14024:	40d786b3          	sub	a3,a5,a3
   14028:	00068793          	mv	a5,a3
   1402c:	01075693          	srli	a3,a4,0x10
   14030:	01079993          	slli	s3,a5,0x10
   14034:	0136e9b3          	or	s3,a3,s3
   14038:	01071913          	slli	s2,a4,0x10
   1403c:	fc442783          	lw	a5,-60(s0)
   14040:	fe078793          	addi	a5,a5,-32
   14044:	0007c863          	bltz	a5,14054 <fast_rsqrt+0x140>
   14048:	00f9da33          	srl	s4,s3,a5
   1404c:	00000a93          	li	s5,0
   14050:	02c0006f          	j	1407c <fast_rsqrt+0x168>
   14054:	00199713          	slli	a4,s3,0x1
   14058:	01f00693          	li	a3,31
   1405c:	fc442783          	lw	a5,-60(s0)
   14060:	40f687b3          	sub	a5,a3,a5
   14064:	00f717b3          	sll	a5,a4,a5
   14068:	fc442703          	lw	a4,-60(s0)
   1406c:	00e95a33          	srl	s4,s2,a4
   14070:	0147ea33          	or	s4,a5,s4
   14074:	fc442783          	lw	a5,-60(s0)
   14078:	00f9dab3          	srl	s5,s3,a5
   1407c:	fb442c23          	sw	s4,-72(s0)
   14080:	fc042703          	lw	a4,-64(s0)
   14084:	fbc42783          	lw	a5,-68(s0)
   14088:	40f707b3          	sub	a5,a4,a5
   1408c:	faf42a23          	sw	a5,-76(s0)
   14090:	fb442783          	lw	a5,-76(s0)
   14094:	f6f42c23          	sw	a5,-136(s0)
   14098:	f6042e23          	sw	zero,-132(s0)
   1409c:	fb842783          	lw	a5,-72(s0)
   140a0:	f6f42823          	sw	a5,-144(s0)
   140a4:	f6042a23          	sw	zero,-140(s0)
   140a8:	f7042603          	lw	a2,-144(s0)
   140ac:	f7442683          	lw	a3,-140(s0)
   140b0:	f7842503          	lw	a0,-136(s0)
   140b4:	f7c42583          	lw	a1,-132(s0)
   140b8:	5b4000ef          	jal	1466c <__muldi3>
   140bc:	00050713          	mv	a4,a0
   140c0:	00058793          	mv	a5,a1
   140c4:	01079693          	slli	a3,a5,0x10
   140c8:	01075d13          	srli	s10,a4,0x10
   140cc:	01a6ed33          	or	s10,a3,s10
   140d0:	0107dd93          	srli	s11,a5,0x10
   140d4:	000d0713          	mv	a4,s10
   140d8:	fc042783          	lw	a5,-64(s0)
   140dc:	40e787b3          	sub	a5,a5,a4
   140e0:	fcf42623          	sw	a5,-52(s0)
   140e4:	fc042423          	sw	zero,-56(s0)
   140e8:	10c0006f          	j	141f4 <fast_rsqrt+0x2e0>
   140ec:	fcc42783          	lw	a5,-52(s0)
   140f0:	f6f42423          	sw	a5,-152(s0)
   140f4:	f6042623          	sw	zero,-148(s0)
   140f8:	fcc42783          	lw	a5,-52(s0)
   140fc:	f6f42023          	sw	a5,-160(s0)
   14100:	f6042223          	sw	zero,-156(s0)
   14104:	f6042603          	lw	a2,-160(s0)
   14108:	f6442683          	lw	a3,-156(s0)
   1410c:	f6842503          	lw	a0,-152(s0)
   14110:	f6c42583          	lw	a1,-148(s0)
   14114:	558000ef          	jal	1466c <__muldi3>
   14118:	00050713          	mv	a4,a0
   1411c:	00058793          	mv	a5,a1
   14120:	fae42423          	sw	a4,-88(s0)
   14124:	faf42623          	sw	a5,-84(s0)
   14128:	f8c42783          	lw	a5,-116(s0)
   1412c:	f4f42c23          	sw	a5,-168(s0)
   14130:	f4042e23          	sw	zero,-164(s0)
   14134:	fa842603          	lw	a2,-88(s0)
   14138:	fac42683          	lw	a3,-84(s0)
   1413c:	f5842503          	lw	a0,-168(s0)
   14140:	f5c42583          	lw	a1,-164(s0)
   14144:	528000ef          	jal	1466c <__muldi3>
   14148:	00050713          	mv	a4,a0
   1414c:	00058793          	mv	a5,a1
   14150:	01079693          	slli	a3,a5,0x10
   14154:	01075613          	srli	a2,a4,0x10
   14158:	00d666b3          	or	a3,a2,a3
   1415c:	fad42023          	sw	a3,-96(s0)
   14160:	0107d793          	srli	a5,a5,0x10
   14164:	faf42223          	sw	a5,-92(s0)
   14168:	00030637          	lui	a2,0x30
   1416c:	00000693          	li	a3,0
   14170:	fa042503          	lw	a0,-96(s0)
   14174:	fa442583          	lw	a1,-92(s0)
   14178:	40a60733          	sub	a4,a2,a0
   1417c:	00070813          	mv	a6,a4
   14180:	01063833          	sltu	a6,a2,a6
   14184:	40b687b3          	sub	a5,a3,a1
   14188:	410786b3          	sub	a3,a5,a6
   1418c:	00068793          	mv	a5,a3
   14190:	f8e42c23          	sw	a4,-104(s0)
   14194:	f8f42e23          	sw	a5,-100(s0)
   14198:	fcc42783          	lw	a5,-52(s0)
   1419c:	f4f42823          	sw	a5,-176(s0)
   141a0:	f4042a23          	sw	zero,-172(s0)
   141a4:	f5042603          	lw	a2,-176(s0)
   141a8:	f5442683          	lw	a3,-172(s0)
   141ac:	f9842503          	lw	a0,-104(s0)
   141b0:	f9c42583          	lw	a1,-100(s0)
   141b4:	4b8000ef          	jal	1466c <__muldi3>
   141b8:	00050713          	mv	a4,a0
   141bc:	00058793          	mv	a5,a1
   141c0:	f8e42823          	sw	a4,-112(s0)
   141c4:	f8f42a23          	sw	a5,-108(s0)
   141c8:	f9442783          	lw	a5,-108(s0)
   141cc:	00f79793          	slli	a5,a5,0xf
   141d0:	f9042703          	lw	a4,-112(s0)
   141d4:	01175b13          	srli	s6,a4,0x11
   141d8:	0167eb33          	or	s6,a5,s6
   141dc:	f9442783          	lw	a5,-108(s0)
   141e0:	0117db93          	srli	s7,a5,0x11
   141e4:	fd642623          	sw	s6,-52(s0)
   141e8:	fc842783          	lw	a5,-56(s0)
   141ec:	00178793          	addi	a5,a5,1
   141f0:	fcf42423          	sw	a5,-56(s0)
   141f4:	fc842703          	lw	a4,-56(s0)
   141f8:	00100793          	li	a5,1
   141fc:	eee7d8e3          	bge	a5,a4,140ec <fast_rsqrt+0x1d8>
   14200:	fcc42783          	lw	a5,-52(s0)
   14204:	00078513          	mv	a0,a5
   14208:	0ac12083          	lw	ra,172(sp)
   1420c:	0a812403          	lw	s0,168(sp)
   14210:	0a412903          	lw	s2,164(sp)
   14214:	0a012983          	lw	s3,160(sp)
   14218:	09c12a03          	lw	s4,156(sp)
   1421c:	09812a83          	lw	s5,152(sp)
   14220:	09412b03          	lw	s6,148(sp)
   14224:	09012b83          	lw	s7,144(sp)
   14228:	08c12c03          	lw	s8,140(sp)
   1422c:	08812c83          	lw	s9,136(sp)
   14230:	08412d03          	lw	s10,132(sp)
   14234:	08012d83          	lw	s11,128(sp)
   14238:	0b010113          	addi	sp,sp,176
   1423c:	00008067          	ret

00014240 <main>:
   14240:	f0010113          	addi	sp,sp,-256
   14244:	0e112e23          	sw	ra,252(sp)
   14248:	0e812c23          	sw	s0,248(sp)
   1424c:	10010413          	addi	s0,sp,256
   14250:	000147b7          	lui	a5,0x14
   14254:	78478793          	addi	a5,a5,1924 # 14784 <rsqrt_table+0x80>
   14258:	0007ae03          	lw	t3,0(a5)
   1425c:	0047a303          	lw	t1,4(a5)
   14260:	0087a883          	lw	a7,8(a5)
   14264:	00c7a803          	lw	a6,12(a5)
   14268:	0107a503          	lw	a0,16(a5)
   1426c:	0147a583          	lw	a1,20(a5)
   14270:	0187a603          	lw	a2,24(a5)
   14274:	01c7a683          	lw	a3,28(a5)
   14278:	0207a703          	lw	a4,32(a5)
   1427c:	f1c42623          	sw	t3,-244(s0)
   14280:	f0642823          	sw	t1,-240(s0)
   14284:	f1142a23          	sw	a7,-236(s0)
   14288:	f1042c23          	sw	a6,-232(s0)
   1428c:	f0a42e23          	sw	a0,-228(s0)
   14290:	f2b42023          	sw	a1,-224(s0)
   14294:	f2c42223          	sw	a2,-220(s0)
   14298:	f2d42423          	sw	a3,-216(s0)
   1429c:	f2e42623          	sw	a4,-212(s0)
   142a0:	0247c783          	lbu	a5,36(a5)
   142a4:	f2f40823          	sb	a5,-208(s0)
   142a8:	f0c40793          	addi	a5,s0,-244
   142ac:	02400713          	li	a4,36
   142b0:	00078593          	mv	a1,a5
   142b4:	00070613          	mv	a2,a4
   142b8:	00100513          	li	a0,1
   142bc:	04000893          	li	a7,64
   142c0:	00000073          	ecall
   142c4:	d79fb0ef          	jal	1003c <get_cycles>
   142c8:	fea42023          	sw	a0,-32(s0)
   142cc:	feb42223          	sw	a1,-28(s0)
   142d0:	d81fb0ef          	jal	10050 <get_instret>
   142d4:	fca42c23          	sw	a0,-40(s0)
   142d8:	fcb42e23          	sw	a1,-36(s0)
   142dc:	000147b7          	lui	a5,0x14
   142e0:	7ac78793          	addi	a5,a5,1964 # 147ac <rsqrt_table+0xa8>
   142e4:	0007a883          	lw	a7,0(a5)
   142e8:	0047a803          	lw	a6,4(a5)
   142ec:	0087a503          	lw	a0,8(a5)
   142f0:	00c7a583          	lw	a1,12(a5)
   142f4:	0107a603          	lw	a2,16(a5)
   142f8:	0147a683          	lw	a3,20(a5)
   142fc:	0187a703          	lw	a4,24(a5)
   14300:	01c7a783          	lw	a5,28(a5)
   14304:	f9142623          	sw	a7,-116(s0)
   14308:	f9042823          	sw	a6,-112(s0)
   1430c:	f8a42a23          	sw	a0,-108(s0)
   14310:	f8b42c23          	sw	a1,-104(s0)
   14314:	f8c42e23          	sw	a2,-100(s0)
   14318:	fad42023          	sw	a3,-96(s0)
   1431c:	fae42223          	sw	a4,-92(s0)
   14320:	faf42423          	sw	a5,-88(s0)
   14324:	00800793          	li	a5,8
   14328:	fcf42a23          	sw	a5,-44(s0)
   1432c:	fe042623          	sw	zero,-20(s0)
   14330:	0f80006f          	j	14428 <main+0x1e8>
   14334:	fec42703          	lw	a4,-20(s0)
   14338:	f8c40793          	addi	a5,s0,-116
   1433c:	00271713          	slli	a4,a4,0x2
   14340:	00f707b3          	add	a5,a4,a5
   14344:	0007a783          	lw	a5,0(a5)
   14348:	faf42623          	sw	a5,-84(s0)
   1434c:	fac42503          	lw	a0,-84(s0)
   14350:	bc5ff0ef          	jal	13f14 <fast_rsqrt>
   14354:	fea42423          	sw	a0,-24(s0)
   14358:	207827b7          	lui	a5,0x20782
   1435c:	02078793          	addi	a5,a5,32 # 20782020 <__stack_top+0x2076c6e0>
   14360:	f8f42223          	sw	a5,-124(s0)
   14364:	000027b7          	lui	a5,0x2
   14368:	03d78793          	addi	a5,a5,61 # 203d <_start-0xdfc3>
   1436c:	f8f41423          	sh	a5,-120(s0)
   14370:	f8040523          	sb	zero,-118(s0)
   14374:	f8440793          	addi	a5,s0,-124
   14378:	00600713          	li	a4,6
   1437c:	00078593          	mv	a1,a5
   14380:	00070613          	mv	a2,a4
   14384:	00100513          	li	a0,1
   14388:	04000893          	li	a7,64
   1438c:	00000073          	ecall
   14390:	fac42503          	lw	a0,-84(s0)
   14394:	8cdff0ef          	jal	13c60 <print_dec>
   14398:	000147b7          	lui	a5,0x14
   1439c:	7cc78793          	addi	a5,a5,1996 # 147cc <rsqrt_table+0xc8>
   143a0:	0007a603          	lw	a2,0(a5)
   143a4:	0047a683          	lw	a3,4(a5)
   143a8:	0087a703          	lw	a4,8(a5)
   143ac:	f6c42a23          	sw	a2,-140(s0)
   143b0:	f6d42c23          	sw	a3,-136(s0)
   143b4:	f6e42e23          	sw	a4,-132(s0)
   143b8:	00c7d783          	lhu	a5,12(a5)
   143bc:	f8f41023          	sh	a5,-128(s0)
   143c0:	f7440793          	addi	a5,s0,-140
   143c4:	00d00713          	li	a4,13
   143c8:	00078593          	mv	a1,a5
   143cc:	00070613          	mv	a2,a4
   143d0:	00100513          	li	a0,1
   143d4:	04000893          	li	a7,64
   143d8:	00000073          	ecall
   143dc:	fac42703          	lw	a4,-84(s0)
   143e0:	00100793          	li	a5,1
   143e4:	00f71663          	bne	a4,a5,143f0 <main+0x1b0>
   143e8:	000107b7          	lui	a5,0x10
   143ec:	fef42423          	sw	a5,-24(s0)
   143f0:	fe842503          	lw	a0,-24(s0)
   143f4:	86dff0ef          	jal	13c60 <print_dec>
   143f8:	00a00793          	li	a5,10
   143fc:	f6f41823          	sh	a5,-144(s0)
   14400:	f7040793          	addi	a5,s0,-144
   14404:	00100713          	li	a4,1
   14408:	00078593          	mv	a1,a5
   1440c:	00070613          	mv	a2,a4
   14410:	00100513          	li	a0,1
   14414:	04000893          	li	a7,64
   14418:	00000073          	ecall
   1441c:	fec42783          	lw	a5,-20(s0)
   14420:	00178793          	addi	a5,a5,1 # 10001 <_start+0x1>
   14424:	fef42623          	sw	a5,-20(s0)
   14428:	fec42703          	lw	a4,-20(s0)
   1442c:	fd442783          	lw	a5,-44(s0)
   14430:	f0f742e3          	blt	a4,a5,14334 <main+0xf4>
   14434:	c09fb0ef          	jal	1003c <get_cycles>
   14438:	fca42423          	sw	a0,-56(s0)
   1443c:	fcb42623          	sw	a1,-52(s0)
   14440:	c11fb0ef          	jal	10050 <get_instret>
   14444:	fca42023          	sw	a0,-64(s0)
   14448:	fcb42223          	sw	a1,-60(s0)
   1444c:	fc842603          	lw	a2,-56(s0)
   14450:	fcc42683          	lw	a3,-52(s0)
   14454:	fe042503          	lw	a0,-32(s0)
   14458:	fe442583          	lw	a1,-28(s0)
   1445c:	40a60733          	sub	a4,a2,a0
   14460:	00070813          	mv	a6,a4
   14464:	01063833          	sltu	a6,a2,a6
   14468:	40b687b3          	sub	a5,a3,a1
   1446c:	410786b3          	sub	a3,a5,a6
   14470:	00068793          	mv	a5,a3
   14474:	fae42c23          	sw	a4,-72(s0)
   14478:	faf42e23          	sw	a5,-68(s0)
   1447c:	fc042603          	lw	a2,-64(s0)
   14480:	fc442683          	lw	a3,-60(s0)
   14484:	fd842503          	lw	a0,-40(s0)
   14488:	fdc42583          	lw	a1,-36(s0)
   1448c:	40a60733          	sub	a4,a2,a0
   14490:	00070813          	mv	a6,a4
   14494:	01063833          	sltu	a6,a2,a6
   14498:	40b687b3          	sub	a5,a3,a1
   1449c:	410786b3          	sub	a3,a5,a6
   144a0:	00068793          	mv	a5,a3
   144a4:	fae42823          	sw	a4,-80(s0)
   144a8:	faf42a23          	sw	a5,-76(s0)
   144ac:	000147b7          	lui	a5,0x14
   144b0:	7dc78793          	addi	a5,a5,2012 # 147dc <rsqrt_table+0xd8>
   144b4:	0007a683          	lw	a3,0(a5)
   144b8:	0047a703          	lw	a4,4(a5)
   144bc:	f6d42223          	sw	a3,-156(s0)
   144c0:	f6e42423          	sw	a4,-152(s0)
   144c4:	0087d703          	lhu	a4,8(a5)
   144c8:	f6e41623          	sh	a4,-148(s0)
   144cc:	00a7c783          	lbu	a5,10(a5)
   144d0:	f6f40723          	sb	a5,-146(s0)
   144d4:	f6440793          	addi	a5,s0,-156
   144d8:	00a00713          	li	a4,10
   144dc:	00078593          	mv	a1,a5
   144e0:	00070613          	mv	a2,a4
   144e4:	00100513          	li	a0,1
   144e8:	04000893          	li	a7,64
   144ec:	00000073          	ecall
   144f0:	fb842783          	lw	a5,-72(s0)
   144f4:	00078513          	mv	a0,a5
   144f8:	f68ff0ef          	jal	13c60 <print_dec>
   144fc:	000147b7          	lui	a5,0x14
   14500:	7e878793          	addi	a5,a5,2024 # 147e8 <rsqrt_table+0xe4>
   14504:	0007a583          	lw	a1,0(a5)
   14508:	0047a603          	lw	a2,4(a5)
   1450c:	0087a683          	lw	a3,8(a5)
   14510:	00c7a703          	lw	a4,12(a5)
   14514:	f4b42823          	sw	a1,-176(s0)
   14518:	f4c42a23          	sw	a2,-172(s0)
   1451c:	f4d42c23          	sw	a3,-168(s0)
   14520:	f4e42e23          	sw	a4,-164(s0)
   14524:	0107c783          	lbu	a5,16(a5)
   14528:	f6f40023          	sb	a5,-160(s0)
   1452c:	f5040793          	addi	a5,s0,-176
   14530:	01000713          	li	a4,16
   14534:	00078593          	mv	a1,a5
   14538:	00070613          	mv	a2,a4
   1453c:	00100513          	li	a0,1
   14540:	04000893          	li	a7,64
   14544:	00000073          	ecall
   14548:	fb042783          	lw	a5,-80(s0)
   1454c:	00078513          	mv	a0,a5
   14550:	f10ff0ef          	jal	13c60 <print_dec>
   14554:	00a00793          	li	a5,10
   14558:	f4f41623          	sh	a5,-180(s0)
   1455c:	f4c40793          	addi	a5,s0,-180
   14560:	00100713          	li	a4,1
   14564:	00078593          	mv	a1,a5
   14568:	00070613          	mv	a2,a4
   1456c:	00100513          	li	a0,1
   14570:	04000893          	li	a7,64
   14574:	00000073          	ecall
   14578:	000147b7          	lui	a5,0x14
   1457c:	7fc78793          	addi	a5,a5,2044 # 147fc <rsqrt_table+0xf8>
   14580:	0007a503          	lw	a0,0(a5)
   14584:	0047a583          	lw	a1,4(a5)
   14588:	0087a603          	lw	a2,8(a5)
   1458c:	00c7a683          	lw	a3,12(a5)
   14590:	0107a703          	lw	a4,16(a5)
   14594:	f2a42a23          	sw	a0,-204(s0)
   14598:	f2b42c23          	sw	a1,-200(s0)
   1459c:	f2c42e23          	sw	a2,-196(s0)
   145a0:	f4d42023          	sw	a3,-192(s0)
   145a4:	f4e42223          	sw	a4,-188(s0)
   145a8:	0147d783          	lhu	a5,20(a5)
   145ac:	f4f41423          	sh	a5,-184(s0)
   145b0:	f3440793          	addi	a5,s0,-204
   145b4:	01500713          	li	a4,21
   145b8:	00078593          	mv	a1,a5
   145bc:	00070613          	mv	a2,a4
   145c0:	00100513          	li	a0,1
   145c4:	04000893          	li	a7,64
   145c8:	00000073          	ecall
   145cc:	00000793          	li	a5,0
   145d0:	00078513          	mv	a0,a5
   145d4:	0fc12083          	lw	ra,252(sp)
   145d8:	0f812403          	lw	s0,248(sp)
   145dc:	10010113          	addi	sp,sp,256
   145e0:	00008067          	ret

Disassembly of section .text.__clzsi2:

000145e4 <__clzsi2>:
   145e4:	000107b7          	lui	a5,0x10
   145e8:	02f57a63          	bgeu	a0,a5,1461c <__clzsi2+0x38>
   145ec:	10053793          	sltiu	a5,a0,256
   145f0:	0017b793          	seqz	a5,a5
   145f4:	00379793          	slli	a5,a5,0x3
   145f8:	02000713          	li	a4,32
   145fc:	40f70733          	sub	a4,a4,a5
   14600:	00f55533          	srl	a0,a0,a5
   14604:	00000797          	auipc	a5,0x0
   14608:	21078793          	addi	a5,a5,528 # 14814 <__clz_tab>
   1460c:	00a787b3          	add	a5,a5,a0
   14610:	0007c503          	lbu	a0,0(a5)
   14614:	40a70533          	sub	a0,a4,a0
   14618:	00008067          	ret
   1461c:	010007b7          	lui	a5,0x1000
   14620:	02f57463          	bgeu	a0,a5,14648 <__clzsi2+0x64>
   14624:	01000713          	li	a4,16
   14628:	00070793          	mv	a5,a4
   1462c:	00f55533          	srl	a0,a0,a5
   14630:	00000797          	auipc	a5,0x0
   14634:	1e478793          	addi	a5,a5,484 # 14814 <__clz_tab>
   14638:	00a787b3          	add	a5,a5,a0
   1463c:	0007c503          	lbu	a0,0(a5)
   14640:	40a70533          	sub	a0,a4,a0
   14644:	00008067          	ret
   14648:	01800793          	li	a5,24
   1464c:	00f55533          	srl	a0,a0,a5
   14650:	00000797          	auipc	a5,0x0
   14654:	1c478793          	addi	a5,a5,452 # 14814 <__clz_tab>
   14658:	00a787b3          	add	a5,a5,a0
   1465c:	0007c503          	lbu	a0,0(a5)
   14660:	00800713          	li	a4,8
   14664:	40a70533          	sub	a0,a4,a0
   14668:	00008067          	ret

Disassembly of section .text.__muldi3:

0001466c <__muldi3>:
   1466c:	ff010113          	addi	sp,sp,-16
   14670:	00812423          	sw	s0,8(sp)
   14674:	00050413          	mv	s0,a0
   14678:	00112623          	sw	ra,12(sp)
   1467c:	00060513          	mv	a0,a2
   14680:	00068393          	mv	t2,a3
   14684:	00040713          	mv	a4,s0
   14688:	00060813          	mv	a6,a2
   1468c:	00000793          	li	a5,0
   14690:	00000313          	li	t1,0
   14694:	00000f13          	li	t5,0
   14698:	01e708b3          	add	a7,a4,t5
   1469c:	00187e93          	andi	t4,a6,1
   146a0:	00f30fb3          	add	t6,t1,a5
   146a4:	01f75e13          	srli	t3,a4,0x1f
   146a8:	00185813          	srli	a6,a6,0x1
   146ac:	00e8b2b3          	sltu	t0,a7,a4
   146b0:	00179793          	slli	a5,a5,0x1
   146b4:	000e8663          	beqz	t4,146c0 <__muldi3+0x54>
   146b8:	00088f13          	mv	t5,a7
   146bc:	01f28333          	add	t1,t0,t6
   146c0:	00171713          	slli	a4,a4,0x1
   146c4:	01c7e7b3          	or	a5,a5,t3
   146c8:	fc0818e3          	bnez	a6,14698 <__muldi3+0x2c>
   146cc:	00058663          	beqz	a1,146d8 <__muldi3+0x6c>
   146d0:	c4cff0ef          	jal	13b1c <__mulsi3>
   146d4:	00650333          	add	t1,a0,t1
   146d8:	00038a63          	beqz	t2,146ec <__muldi3+0x80>
   146dc:	00040513          	mv	a0,s0
   146e0:	00038593          	mv	a1,t2
   146e4:	c38ff0ef          	jal	13b1c <__mulsi3>
   146e8:	00650333          	add	t1,a0,t1
   146ec:	00c12083          	lw	ra,12(sp)
   146f0:	00812403          	lw	s0,8(sp)
   146f4:	000f0513          	mv	a0,t5
   146f8:	00030593          	mv	a1,t1
   146fc:	01010113          	addi	sp,sp,16
   14700:	00008067          	ret
